SF:/home/bzf/projects/pmix-rs/src/allocation.rs
FN:120,_RNvMNtCsyULe2umut5_4pmix10allocationNtB2_18PmixAllocDirective6to_raw
FN:108,_RNvMNtCsyULe2umut5_4pmix10allocationNtB2_18PmixAllocDirective8from_raw
FN:164,_RNvMs0_NtCsyULe2umut5_4pmix10allocationNtB5_17AllocationResults3len
FN:169,_RNvMs0_NtCsyULe2umut5_4pmix10allocationNtB5_17AllocationResults8is_empty
FN:225,_RNvNtCsyULe2umut5_4pmix10allocation18allocation_request
FN:133,_RNvXs_NtCsyULe2umut5_4pmix10allocationNtB4_18PmixAllocDirectiveNtNtCs27Vx93FoQ6z_4core3fmt7Display3fmt
FN:654,_RNCNvNtCsyULe2umut5_4pmix10allocation12JOB_CTRL_SEQ0B5_
FN:288,_RNCNvNtCsyULe2umut5_4pmix10allocation14ALLOCATION_SEQ0B5_
FN:853,_RNCNvNtCsyULe2umut5_4pmix10allocation16SESSION_CTRL_SEQ0B5_
FN:661,_RNCNvNtCsyULe2umut5_4pmix10allocation17JOB_CTRL_REGISTRY0B5_
FN:295,_RNCNvNtCsyULe2umut5_4pmix10allocation19ALLOCATION_REGISTRY0B5_
FN:857,_RNCNvNtCsyULe2umut5_4pmix10allocation21SESSION_CTRL_REGISTRY0B5_
FN:175,_RNvXs1_NtCsyULe2umut5_4pmix10allocationNtB5_17AllocationResultsNtNtNtCs27Vx93FoQ6z_4core3ops4drop4Drop4drop
FN:475,_RNvMs2_NtCsyULe2umut5_4pmix10allocationNtB5_17PmixJobCtrlAction3key
FN:516,_RNvMs4_NtCsyULe2umut5_4pmix10allocationNtB5_17JobControlResults3len
FN:521,_RNvMs4_NtCsyULe2umut5_4pmix10allocationNtB5_17JobControlResults8is_empty
FN:528,_RNvMs4_NtCsyULe2umut5_4pmix10allocationNtB5_17JobControlResults9new_empty
FN:824,_RNvMs6_NtCsyULe2umut5_4pmix10allocationNtB5_21SessionControlResults3len
FN:828,_RNvMs6_NtCsyULe2umut5_4pmix10allocationNtB5_21SessionControlResults8is_empty
FN:582,_RNvNtCsyULe2umut5_4pmix10allocation11job_control
FN:736,_RNvNtCsyULe2umut5_4pmix10allocation14job_control_nb
FN:921,_RNvNtCsyULe2umut5_4pmix10allocation15session_control
FN:370,_RNvNtCsyULe2umut5_4pmix10allocation21allocation_request_nb
FN:302,_RNvNtCsyULe2umut5_4pmix10allocation26allocation_callback_bridge
FN:668,_RNvNtCsyULe2umut5_4pmix10allocation27job_control_callback_bridge
FN:859,_RNvNtCsyULe2umut5_4pmix10allocation31session_control_callback_bridge
FN:489,_RNvXs3_NtCsyULe2umut5_4pmix10allocationNtB5_17PmixJobCtrlActionNtNtCs27Vx93FoQ6z_4core3fmt7Display3fmt
FN:537,_RNvXs5_NtCsyULe2umut5_4pmix10allocationNtB5_17JobControlResultsNtNtNtCs27Vx93FoQ6z_4core3ops4drop4Drop4drop
FN:834,_RNvXs7_NtCsyULe2umut5_4pmix10allocationNtB5_21SessionControlResultsNtNtNtCs27Vx93FoQ6z_4core3ops4drop4Drop4drop
FN:1085,_RNvNtNtCsyULe2umut5_4pmix10allocation5testss_28test_alloc_directive_derives
FN:1060,_RNvNtNtCsyULe2umut5_4pmix10allocation5testss_28test_alloc_directive_display
FN:1053,_RNvNtNtCsyULe2umut5_4pmix10allocation5testss_28test_alloc_directive_unknown
FN:1128,_RNvNtNtCsyULe2umut5_4pmix10allocation5testss_29test_allocation_results_debug
FN:1118,_RNvNtNtCsyULe2umut5_4pmix10allocation5testss_29test_allocation_results_empty
FN:1003,_RNvNtNtCsyULe2umut5_4pmix10allocation5testss_34test_alloc_directive_new_roundtrip
FN:1161,_RNvNtNtCsyULe2umut5_4pmix10allocation5testss_34test_allocation_request_empty_info
FN:1013,_RNvNtNtCsyULe2umut5_4pmix10allocation5testss_37test_alloc_directive_extend_roundtrip
FN:1140,_RNvNtNtCsyULe2umut5_4pmix10allocation5testss_37test_allocation_request_requires_init
FN:1023,_RNvNtNtCsyULe2umut5_4pmix10allocation5testss_38test_alloc_directive_release_roundtrip
FN:1043,_RNvNtNtCsyULe2umut5_4pmix10allocation5testss_39test_alloc_directive_external_roundtrip
FN:1033,_RNvNtNtCsyULe2umut5_4pmix10allocation5testss_40test_alloc_directive_reacquire_roundtrip
FN:1151,_RNvNtNtCsyULe2umut5_4pmix10allocation5testss_40test_allocation_request_directive_values
FNDA:17,_RNvMNtCsyULe2umut5_4pmix10allocationNtB2_18PmixAllocDirective6to_raw
FNDA:6,_RNvMNtCsyULe2umut5_4pmix10allocationNtB2_18PmixAllocDirective8from_raw
FNDA:1,_RNvMs0_NtCsyULe2umut5_4pmix10allocationNtB5_17AllocationResults3len
FNDA:1,_RNvMs0_NtCsyULe2umut5_4pmix10allocationNtB5_17AllocationResults8is_empty
FNDA:2,_RNvNtCsyULe2umut5_4pmix10allocation18allocation_request
FNDA:6,_RNvXs_NtCsyULe2umut5_4pmix10allocationNtB4_18PmixAllocDirectiveNtNtCs27Vx93FoQ6z_4core3fmt7Display3fmt
FNDA:0,_RNCNvNtCsyULe2umut5_4pmix10allocation12JOB_CTRL_SEQ0B5_
FNDA:0,_RNCNvNtCsyULe2umut5_4pmix10allocation14ALLOCATION_SEQ0B5_
FNDA:0,_RNCNvNtCsyULe2umut5_4pmix10allocation16SESSION_CTRL_SEQ0B5_
FNDA:0,_RNCNvNtCsyULe2umut5_4pmix10allocation17JOB_CTRL_REGISTRY0B5_
FNDA:0,_RNCNvNtCsyULe2umut5_4pmix10allocation19ALLOCATION_REGISTRY0B5_
FNDA:0,_RNCNvNtCsyULe2umut5_4pmix10allocation21SESSION_CTRL_REGISTRY0B5_
FNDA:2,_RNvXs1_NtCsyULe2umut5_4pmix10allocationNtB5_17AllocationResultsNtNtNtCs27Vx93FoQ6z_4core3ops4drop4Drop4drop
FNDA:0,_RNvMs2_NtCsyULe2umut5_4pmix10allocationNtB5_17PmixJobCtrlAction3key
FNDA:0,_RNvMs4_NtCsyULe2umut5_4pmix10allocationNtB5_17JobControlResults3len
FNDA:0,_RNvMs4_NtCsyULe2umut5_4pmix10allocationNtB5_17JobControlResults8is_empty
FNDA:0,_RNvMs4_NtCsyULe2umut5_4pmix10allocationNtB5_17JobControlResults9new_empty
FNDA:0,_RNvMs6_NtCsyULe2umut5_4pmix10allocationNtB5_21SessionControlResults3len
FNDA:0,_RNvMs6_NtCsyULe2umut5_4pmix10allocationNtB5_21SessionControlResults8is_empty
FNDA:0,_RNvNtCsyULe2umut5_4pmix10allocation11job_control
FNDA:0,_RNvNtCsyULe2umut5_4pmix10allocation14job_control_nb
FNDA:0,_RNvNtCsyULe2umut5_4pmix10allocation15session_control
FNDA:0,_RNvNtCsyULe2umut5_4pmix10allocation21allocation_request_nb
FNDA:0,_RNvNtCsyULe2umut5_4pmix10allocation26allocation_callback_bridge
FNDA:0,_RNvNtCsyULe2umut5_4pmix10allocation27job_control_callback_bridge
FNDA:0,_RNvNtCsyULe2umut5_4pmix10allocation31session_control_callback_bridge
FNDA:0,_RNvXs3_NtCsyULe2umut5_4pmix10allocationNtB5_17PmixJobCtrlActionNtNtCs27Vx93FoQ6z_4core3fmt7Display3fmt
FNDA:0,_RNvXs5_NtCsyULe2umut5_4pmix10allocationNtB5_17JobControlResultsNtNtNtCs27Vx93FoQ6z_4core3ops4drop4Drop4drop
FNDA:0,_RNvXs7_NtCsyULe2umut5_4pmix10allocationNtB5_21SessionControlResultsNtNtNtCs27Vx93FoQ6z_4core3ops4drop4Drop4drop
FNDA:1,_RNvNtNtCsyULe2umut5_4pmix10allocation5testss_28test_alloc_directive_derives
FNDA:1,_RNvNtNtCsyULe2umut5_4pmix10allocation5testss_28test_alloc_directive_display
FNDA:1,_RNvNtNtCsyULe2umut5_4pmix10allocation5testss_28test_alloc_directive_unknown
FNDA:1,_RNvNtNtCsyULe2umut5_4pmix10allocation5testss_29test_allocation_results_debug
FNDA:1,_RNvNtNtCsyULe2umut5_4pmix10allocation5testss_29test_allocation_results_empty
FNDA:1,_RNvNtNtCsyULe2umut5_4pmix10allocation5testss_34test_alloc_directive_new_roundtrip
FNDA:1,_RNvNtNtCsyULe2umut5_4pmix10allocation5testss_34test_allocation_request_empty_info
FNDA:1,_RNvNtNtCsyULe2umut5_4pmix10allocation5testss_37test_alloc_directive_extend_roundtrip
FNDA:1,_RNvNtNtCsyULe2umut5_4pmix10allocation5testss_37test_allocation_request_requires_init
FNDA:1,_RNvNtNtCsyULe2umut5_4pmix10allocation5testss_38test_alloc_directive_release_roundtrip
FNDA:1,_RNvNtNtCsyULe2umut5_4pmix10allocation5testss_39test_alloc_directive_external_roundtrip
FNDA:1,_RNvNtNtCsyULe2umut5_4pmix10allocation5testss_40test_alloc_directive_reacquire_roundtrip
FNDA:1,_RNvNtNtCsyULe2umut5_4pmix10allocation5testss_40test_allocation_request_directive_values
FNF:42
FNH:20
DA:108,6
DA:109,6
DA:110,1
DA:111,1
DA:112,1
DA:113,1
DA:114,1
DA:115,1
DA:117,6
DA:120,17
DA:121,17
DA:122,7
DA:123,3
DA:124,2
DA:125,2
DA:126,2
DA:127,1
DA:129,17
DA:133,6
DA:134,6
DA:135,1
DA:136,1
DA:137,1
DA:138,1
DA:139,1
DA:140,1
DA:142,6
DA:164,1
DA:165,1
DA:166,1
DA:169,1
DA:170,1
DA:171,1
DA:175,2
DA:176,2
DA:177,0
DA:178,0
DA:179,0
DA:180,0
DA:181,0
DA:182,0
DA:183,0
DA:184,2
DA:185,2
DA:225,2
DA:226,2
DA:227,2
DA:228,2
DA:229,2
DA:230,2
DA:233,2
DA:234,2
DA:239,0
DA:242,2
DA:249,2
DA:250,2
DA:251,2
DA:252,2
DA:253,2
DA:254,2
DA:258,2
DA:260,2
DA:261,2
DA:262,0
DA:264,0
DA:265,0
DA:266,0
DA:267,0
DA:268,2
DA:288,0
DA:295,0
DA:302,0
DA:303,0
DA:304,0
DA:305,0
DA:306,0
DA:307,0
DA:308,0
DA:309,0
DA:310,0
DA:311,0
DA:312,0
DA:315,0
DA:318,0
DA:319,0
DA:320,0
DA:322,0
DA:323,0
DA:326,0
DA:327,0
DA:328,0
DA:329,0
DA:330,0
DA:331,0
DA:335,0
DA:336,0
DA:337,0
DA:338,0
DA:339,0
DA:340,0
DA:342,0
DA:343,0
DA:370,0
DA:371,0
DA:372,0
DA:373,0
DA:374,0
DA:376,0
DA:377,0
DA:378,0
DA:379,0
DA:384,0
DA:386,0
DA:387,0
DA:388,0
DA:389,0
DA:392,0
DA:393,0
DA:398,0
DA:401,0
DA:410,0
DA:411,0
DA:412,0
DA:413,0
DA:414,0
DA:415,0
DA:419,0
DA:421,0
DA:422,0
DA:425,0
DA:426,0
DA:427,0
DA:429,0
DA:475,0
DA:476,0
DA:477,0
DA:478,0
DA:479,0
DA:480,0
DA:481,0
DA:482,0
DA:483,0
DA:485,0
DA:489,0
DA:490,0
DA:491,0
DA:492,0
DA:493,0
DA:494,0
DA:495,0
DA:496,0
DA:497,0
DA:499,0
DA:516,0
DA:517,0
DA:518,0
DA:521,0
DA:522,0
DA:523,0
DA:528,0
DA:529,0
DA:530,0
DA:531,0
DA:532,0
DA:533,0
DA:537,0
DA:538,0
DA:539,0
DA:540,0
DA:541,0
DA:542,0
DA:543,0
DA:544,0
DA:545,0
DA:546,0
DA:547,0
DA:582,0
DA:583,0
DA:584,0
DA:587,0
DA:588,0
DA:593,0
DA:598,0
DA:599,0
DA:604,0
DA:608,0
DA:614,0
DA:615,0
DA:616,0
DA:617,0
DA:618,0
DA:619,0
DA:620,0
DA:624,0
DA:626,0
DA:627,0
DA:628,0
DA:630,0
DA:631,0
DA:632,0
DA:633,0
DA:634,0
DA:654,0
DA:661,0
DA:668,0
DA:669,0
DA:670,0
DA:671,0
DA:672,0
DA:673,0
DA:674,0
DA:675,0
DA:676,0
DA:677,0
DA:678,0
DA:681,0
DA:684,0
DA:685,0
DA:686,0
DA:688,0
DA:689,0
DA:692,0
DA:693,0
DA:694,0
DA:695,0
DA:696,0
DA:697,0
DA:701,0
DA:702,0
DA:703,0
DA:704,0
DA:705,0
DA:706,0
DA:708,0
DA:709,0
DA:736,0
DA:737,0
DA:738,0
DA:739,0
DA:740,0
DA:742,0
DA:743,0
DA:744,0
DA:745,0
DA:750,0
DA:752,0
DA:753,0
DA:754,0
DA:755,0
DA:758,0
DA:759,0
DA:764,0
DA:769,0
DA:770,0
DA:775,0
DA:779,0
DA:788,0
DA:789,0
DA:790,0
DA:791,0
DA:792,0
DA:793,0
DA:794,0
DA:798,0
DA:800,0
DA:801,0
DA:804,0
DA:805,0
DA:806,0
DA:808,0
DA:824,0
DA:825,0
DA:826,0
DA:828,0
DA:829,0
DA:830,0
DA:834,0
DA:835,0
DA:836,0
DA:837,0
DA:838,0
DA:839,0
DA:840,0
DA:841,0
DA:842,0
DA:853,0
DA:857,0
DA:859,0
DA:860,0
DA:861,0
DA:862,0
DA:863,0
DA:864,0
DA:865,0
DA:866,0
DA:867,0
DA:868,0
DA:869,0
DA:871,0
DA:873,0
DA:874,0
DA:875,0
DA:877,0
DA:878,0
DA:880,0
DA:881,0
DA:882,0
DA:883,0
DA:884,0
DA:885,0
DA:889,0
DA:890,0
DA:891,0
DA:892,0
DA:893,0
DA:894,0
DA:895,0
DA:896,0
DA:921,0
DA:922,0
DA:923,0
DA:924,0
DA:925,0
DA:926,0
DA:927,0
DA:929,0
DA:931,0
DA:933,0
DA:934,0
DA:936,0
DA:937,0
DA:938,0
DA:939,0
DA:941,0
DA:943,0
DA:944,0
DA:945,0
DA:946,0
DA:948,0
DA:949,0
DA:950,0
DA:951,0
DA:952,0
DA:953,0
DA:954,0
DA:958,0
DA:959,0
DA:960,0
DA:962,0
DA:963,0
DA:964,0
DA:969,0
DA:970,0
DA:975,0
DA:976,0
DA:979,0
DA:980,0
DA:981,0
DA:982,0
DA:983,0
DA:984,0
DA:986,0
DA:990,0
DA:1003,1
DA:1004,1
DA:1005,1
DA:1006,1
DA:1007,1
DA:1010,1
DA:1013,1
DA:1014,1
DA:1015,1
DA:1016,1
DA:1017,1
DA:1020,1
DA:1023,1
DA:1024,1
DA:1025,1
DA:1026,1
DA:1027,1
DA:1030,1
DA:1033,1
DA:1034,1
DA:1035,1
DA:1036,1
DA:1037,1
DA:1040,1
DA:1043,1
DA:1044,1
DA:1045,1
DA:1046,1
DA:1047,1
DA:1050,1
DA:1053,1
DA:1054,1
DA:1055,1
DA:1056,1
DA:1057,1
DA:1060,1
DA:1061,1
DA:1062,1
DA:1063,1
DA:1066,1
DA:1067,1
DA:1070,1
DA:1071,1
DA:1074,1
DA:1075,1
DA:1078,1
DA:1079,1
DA:1082,1
DA:1085,1
DA:1087,1
DA:1088,1
DA:1089,1
DA:1092,1
DA:1093,1
DA:1096,1
DA:1097,1
DA:1100,1
DA:1101,1
DA:1108,1
DA:1109,1
DA:1110,1
DA:1111,1
DA:1112,1
DA:1113,1
DA:1118,1
DA:1119,1
DA:1120,1
DA:1121,1
DA:1122,1
DA:1123,1
DA:1124,1
DA:1125,1
DA:1128,1
DA:1129,1
DA:1130,1
DA:1131,1
DA:1132,1
DA:1133,1
DA:1134,1
DA:1135,1
DA:1140,1
DA:1143,1
DA:1145,1
DA:1146,1
DA:1147,1
DA:1148,1
DA:1151,1
DA:1153,1
DA:1154,1
DA:1155,1
DA:1156,1
DA:1157,1
DA:1158,1
DA:1161,1
DA:1164,1
DA:1165,1
DA:1166,1
BRF:0
BRH:0
LF:460
LH:153
end_of_record
SF:/home/bzf/projects/pmix-rs/src/cpu_locality.rs
FN:146,_RNCNvNtCsyULe2umut5_4pmix12cpu_locality19parse_cpuset_string0B5_
FN:287,_RNCNvNtCsyULe2umut5_4pmix12cpu_locality21get_relative_locality0B5_
FN:288,_RNCNvNtCsyULe2umut5_4pmix12cpu_locality21get_relative_localitys_0B5_
FN:505,_RNvNtNtCsyULe2umut5_4pmix12cpu_locality5testss_21test_locality_bit_ops
FN:403,_RNvNtNtCsyULe2umut5_4pmix12cpu_locality5testss_22test_get_cpuset_thread
FN:393,_RNvNtNtCsyULe2umut5_4pmix12cpu_locality5testss_23test_get_cpuset_process
FN:498,_RNvNtNtCsyULe2umut5_4pmix12cpu_locality5testss_23test_locality_roundtrip
FN:483,_RNvNtNtCsyULe2umut5_4pmix12cpu_locality5testss_24test_locality_bit_values
FN:447,_RNvNtNtCsyULe2umut5_4pmix12cpu_locality5testss_25test_bind_envelope_to_raw
FN:454,_RNvNtNtCsyULe2umut5_4pmix12cpu_locality5testss_25test_bind_envelope_traits
FN:433,_RNvNtNtCsyULe2umut5_4pmix12cpu_locality5testss_28test_get_cpuset_reuse_cpuset
FN:349,_RNvNtNtCsyULe2umut5_4pmix12cpu_locality5testss_29test_parse_cpuset_string_list
FN:341,_RNvNtNtCsyULe2umut5_4pmix12cpu_locality5testss_30test_parse_cpuset_string_range
FN:411,_RNvNtNtCsyULe2umut5_4pmix12cpu_locality5testss_31test_get_cpuset_not_initialized
FN:424,_RNvNtNtCsyULe2umut5_4pmix12cpu_locality5testss_32test_get_cpuset_cleanup_on_error
FN:470,_RNvNtNtCsyULe2umut5_4pmix12cpu_locality5testss_35test_get_relative_locality_no_panic
FN:515,_RNvNtNtCsyULe2umut5_4pmix12cpu_locality5testss_35test_get_relative_locality_nul_byte
FN:331,_RNvNtNtCsyULe2umut5_4pmix12cpu_locality5testss_35test_parse_cpuset_string_single_cpu
FN:377,_RNvNtNtCsyULe2umut5_4pmix12cpu_locality5testss_36test_parse_cpuset_string_long_string
FN:319,_RNvNtNtCsyULe2umut5_4pmix12cpu_locality5testss_37test_parse_cpuset_string_empty_string
FN:369,_RNvNtNtCsyULe2umut5_4pmix12cpu_locality5testss_37test_parse_cpuset_string_mixed_format
FN:358,_RNvNtNtCsyULe2umut5_4pmix12cpu_locality5testss_41test_parse_cpuset_string_cleanup_on_error
FN:476,_RNvNtNtCsyULe2umut5_4pmix12cpu_locality5testss_42test_get_relative_locality_not_initialized
FN:47,_RNvMNtCsyULe2umut5_4pmix12cpu_localityNtB2_16PmixBindEnvelope6to_raw
FN:241,_RNvMs_NtCsyULe2umut5_4pmix12cpu_localityNtB4_12PmixLocality6to_raw
FN:236,_RNvMs_NtCsyULe2umut5_4pmix12cpu_localityNtB4_12PmixLocality8from_raw
FN:86,_RNvNtCsyULe2umut5_4pmix12cpu_locality10get_cpuset
FN:145,_RNvNtCsyULe2umut5_4pmix12cpu_locality19parse_cpuset_string
FN:286,_RNvNtCsyULe2umut5_4pmix12cpu_locality21get_relative_locality
FN:380,_RNCNvNtNtCsyULe2umut5_4pmix12cpu_locality5testss_36test_parse_cpuset_string_long_string0B7_
FNDA:1,_RNCNvNtCsyULe2umut5_4pmix12cpu_locality19parse_cpuset_string0B5_
FNDA:1,_RNCNvNtCsyULe2umut5_4pmix12cpu_locality21get_relative_locality0B5_
FNDA:1,_RNCNvNtCsyULe2umut5_4pmix12cpu_locality21get_relative_localitys_0B5_
FNDA:1,_RNvNtNtCsyULe2umut5_4pmix12cpu_locality5testss_21test_locality_bit_ops
FNDA:1,_RNvNtNtCsyULe2umut5_4pmix12cpu_locality5testss_22test_get_cpuset_thread
FNDA:1,_RNvNtNtCsyULe2umut5_4pmix12cpu_locality5testss_23test_get_cpuset_process
FNDA:1,_RNvNtNtCsyULe2umut5_4pmix12cpu_locality5testss_23test_locality_roundtrip
FNDA:1,_RNvNtNtCsyULe2umut5_4pmix12cpu_locality5testss_24test_locality_bit_values
FNDA:1,_RNvNtNtCsyULe2umut5_4pmix12cpu_locality5testss_25test_bind_envelope_to_raw
FNDA:1,_RNvNtNtCsyULe2umut5_4pmix12cpu_locality5testss_25test_bind_envelope_traits
FNDA:1,_RNvNtNtCsyULe2umut5_4pmix12cpu_locality5testss_28test_get_cpuset_reuse_cpuset
FNDA:1,_RNvNtNtCsyULe2umut5_4pmix12cpu_locality5testss_29test_parse_cpuset_string_list
FNDA:1,_RNvNtNtCsyULe2umut5_4pmix12cpu_locality5testss_30test_parse_cpuset_string_range
FNDA:1,_RNvNtNtCsyULe2umut5_4pmix12cpu_locality5testss_31test_get_cpuset_not_initialized
FNDA:1,_RNvNtNtCsyULe2umut5_4pmix12cpu_locality5testss_32test_get_cpuset_cleanup_on_error
FNDA:1,_RNvNtNtCsyULe2umut5_4pmix12cpu_locality5testss_35test_get_relative_locality_no_panic
FNDA:1,_RNvNtNtCsyULe2umut5_4pmix12cpu_locality5testss_35test_get_relative_locality_nul_byte
FNDA:1,_RNvNtNtCsyULe2umut5_4pmix12cpu_locality5testss_35test_parse_cpuset_string_single_cpu
FNDA:1,_RNvNtNtCsyULe2umut5_4pmix12cpu_locality5testss_36test_parse_cpuset_string_long_string
FNDA:1,_RNvNtNtCsyULe2umut5_4pmix12cpu_locality5testss_37test_parse_cpuset_string_empty_string
FNDA:1,_RNvNtNtCsyULe2umut5_4pmix12cpu_locality5testss_37test_parse_cpuset_string_mixed_format
FNDA:1,_RNvNtNtCsyULe2umut5_4pmix12cpu_locality5testss_41test_parse_cpuset_string_cleanup_on_error
FNDA:1,_RNvNtNtCsyULe2umut5_4pmix12cpu_locality5testss_42test_get_relative_locality_not_initialized
FNDA:8,_RNvMNtCsyULe2umut5_4pmix12cpu_localityNtB2_16PmixBindEnvelope6to_raw
FNDA:1,_RNvMs_NtCsyULe2umut5_4pmix12cpu_localityNtB4_12PmixLocality6to_raw
FNDA:1,_RNvMs_NtCsyULe2umut5_4pmix12cpu_localityNtB4_12PmixLocality8from_raw
FNDA:6,_RNvNtCsyULe2umut5_4pmix12cpu_locality10get_cpuset
FNDA:7,_RNvNtCsyULe2umut5_4pmix12cpu_locality19parse_cpuset_string
FNDA:4,_RNvNtCsyULe2umut5_4pmix12cpu_locality21get_relative_locality
FNDA:256,_RNCNvNtNtCsyULe2umut5_4pmix12cpu_locality5testss_36test_parse_cpuset_string_long_string0B7_
FNF:30
FNH:30
DA:47,8
DA:48,8
DA:49,8
DA:86,6
DA:87,6
DA:88,6
DA:90,6
DA:94,6
DA:97,6
DA:98,6
DA:99,6
DA:100,0
DA:102,0
DA:103,6
DA:145,7
DA:146,7
DA:147,6
DA:149,6
DA:153,6
DA:156,6
DA:157,6
DA:158,6
DA:159,0
DA:161,0
DA:162,7
DA:236,1
DA:237,1
DA:238,1
DA:241,1
DA:242,1
DA:243,1
DA:286,4
DA:287,4
DA:288,3
DA:290,2
DA:291,2
DA:296,2
DA:299,2
DA:300,2
DA:301,2
DA:302,0
DA:304,0
DA:305,4
DA:319,1
DA:320,1
DA:323,1
DA:326,1
DA:327,1
DA:331,1
DA:332,1
DA:333,1
DA:336,1
DA:337,1
DA:341,1
DA:342,1
DA:343,1
DA:344,1
DA:345,1
DA:349,1
DA:350,1
DA:351,1
DA:352,1
DA:353,1
DA:358,1
DA:359,1
DA:361,1
DA:362,1
DA:364,1
DA:365,1
DA:369,1
DA:370,1
DA:371,1
DA:372,1
DA:373,1
DA:377,1
DA:378,1
DA:379,1
DA:380,256
DA:381,1
DA:382,1
DA:383,1
DA:384,1
DA:385,1
DA:393,1
DA:394,1
DA:395,1
DA:398,1
DA:399,1
DA:403,1
DA:404,1
DA:405,1
DA:406,1
DA:407,1
DA:411,1
DA:412,1
DA:413,1
DA:415,1
DA:416,1
DA:419,1
DA:424,1
DA:425,1
DA:426,1
DA:428,1
DA:429,1
DA:433,1
DA:434,1
DA:435,1
DA:436,1
DA:438,1
DA:439,1
DA:440,1
DA:443,1
DA:447,1
DA:448,1
DA:449,1
DA:450,1
DA:454,1
DA:455,1
DA:456,1
DA:457,1
DA:458,1
DA:459,1
DA:470,1
DA:471,1
DA:472,1
DA:476,1
DA:477,1
DA:478,1
DA:479,1
DA:483,1
DA:484,1
DA:485,1
DA:486,1
DA:487,1
DA:488,1
DA:489,1
DA:490,1
DA:491,1
DA:492,1
DA:493,1
DA:494,1
DA:498,1
DA:499,1
DA:500,1
DA:501,1
DA:505,1
DA:506,1
DA:507,1
DA:508,1
DA:509,1
DA:510,1
DA:511,1
DA:515,1
DA:516,1
DA:517,1
DA:518,1
BRF:0
BRH:0
LF:160
LH:154
end_of_record
SF:/home/bzf/projects/pmix-rs/src/data_ops.rs
FN:1328,_RNvNtNtCsyULe2umut5_4pmix8data_ops5testss_14test_pdata_new
FN:1335,_RNvNtNtCsyULe2umut5_4pmix8data_ops5testss_15test_pdata_proc
FN:1371,_RNvNtNtCsyULe2umut5_4pmix8data_ops5testss_32test_fence_callback_trait_object
FN:1351,_RNvNtNtCsyULe2umut5_4pmix8data_ops5testss_33test_lookup_callback_trait_object
FN:1341,_RNvNtNtCsyULe2umut5_4pmix8data_ops5testss_34test_publish_callback_trait_object
FN:1381,_RNvNtNtCsyULe2umut5_4pmix8data_ops5testss_36test_get_value_callback_trait_object
FN:1361,_RNvNtNtCsyULe2umut5_4pmix8data_ops5testss_36test_unpublish_callback_trait_object
FN:1374,_RNvXNvNtNtCsyULe2umut5_4pmix8data_ops5testss_32test_fence_callback_trait_objectNtB2_10DummyFenceNtB6_13FenceCallback11on_complete
FN:1354,_RNvXNvNtNtCsyULe2umut5_4pmix8data_ops5testss_33test_lookup_callback_trait_objectNtB2_11DummyLookupNtB6_14LookupCallback9on_result
FN:1344,_RNvXNvNtNtCsyULe2umut5_4pmix8data_ops5testss_34test_publish_callback_trait_objectNtB2_12DummyPublishNtB6_15PublishCallback11on_complete
FN:1384,_RNvXNvNtNtCsyULe2umut5_4pmix8data_ops5testss_36test_get_value_callback_trait_objectNtB2_13DummyGetValueNtB6_16GetValueCallback9on_result
FN:1364,_RNvXNvNtNtCsyULe2umut5_4pmix8data_ops5testss_36test_unpublish_callback_trait_objectNtB2_14DummyUnpublishNtB6_17UnpublishCallback11on_complete
FN:466,_RNvMs_NtCsyULe2umut5_4pmix8data_opsNtB4_9PmixPdata3new
FN:469,_RNCNvMs_NtCsyULe2umut5_4pmix8data_opsNtB6_9PmixPdata3new0B8_
FN:627,_RNCNvNtCsyULe2umut5_4pmix8data_ops10LOOKUP_SEQ0B5_
FN:82,_RNCNvNtCsyULe2umut5_4pmix8data_ops11PUBLISH_SEQ0B5_
FN:202,_RNCNvNtCsyULe2umut5_4pmix8data_ops12GET_REGISTRY0B5_
FN:847,_RNCNvNtCsyULe2umut5_4pmix8data_ops13UNPUBLISH_SEQ0B5_
FN:1167,_RNCNvNtCsyULe2umut5_4pmix8data_ops14FENCE_REGISTRY0B5_
FN:624,_RNCNvNtCsyULe2umut5_4pmix8data_ops15LOOKUP_REGISTRY0B5_
FN:79,_RNCNvNtCsyULe2umut5_4pmix8data_ops16PUBLISH_REGISTRY0B5_
FN:844,_RNCNvNtCsyULe2umut5_4pmix8data_ops18UNPUBLISH_REGISTRY0B5_
FN:205,_RNCNvNtCsyULe2umut5_4pmix8data_ops7GET_SEQ0B5_
FN:1170,_RNCNvNtCsyULe2umut5_4pmix8data_ops9FENCE_SEQ0B5_
FN:689,_RNCNvNtCsyULe2umut5_4pmix8data_ops22lookup_callback_bridge0B5_
FN:575,_RNCNvNtCsyULe2umut5_4pmix8data_ops6lookup0B5_
FN:1278,_RNCNvNtCsyULe2umut5_4pmix8data_ops8fence_nb0B5_
FN:135,_RNvNtCsyULe2umut5_4pmix8data_ops10publish_nb
FN:994,_RNvNtCsyULe2umut5_4pmix8data_ops12unpublish_nb
FN:1118,_RNvNtCsyULe2umut5_4pmix8data_ops14store_internal
FN:1177,_RNvNtCsyULe2umut5_4pmix8data_ops21fence_callback_bridge
FN:634,_RNvNtCsyULe2umut5_4pmix8data_ops22lookup_callback_bridge
FN:89,_RNvNtCsyULe2umut5_4pmix8data_ops23publish_callback_bridge
FN:212,_RNvNtCsyULe2umut5_4pmix8data_ops25get_value_callback_bridge
FN:854,_RNvNtCsyULe2umut5_4pmix8data_ops25unpublish_callback_bridge
FN:377,_RNvNtCsyULe2umut5_4pmix8data_ops3get
FN:279,_RNvNtCsyULe2umut5_4pmix8data_ops6get_nb
FN:504,_RNvNtCsyULe2umut5_4pmix8data_ops6lookup
FN:45,_RNvNtCsyULe2umut5_4pmix8data_ops7publish
FN:1244,_RNvNtCsyULe2umut5_4pmix8data_ops8fence_nb
FN:747,_RNvNtCsyULe2umut5_4pmix8data_ops9lookup_nb
FN:905,_RNvNtCsyULe2umut5_4pmix8data_ops9unpublish
FN:453,_RNvXNtCsyULe2umut5_4pmix8data_opsNtB2_9PmixPdataNtNtCs27Vx93FoQ6z_4core3fmt5Debug3fmt
FNDA:1,_RNvNtNtCsyULe2umut5_4pmix8data_ops5testss_14test_pdata_new
FNDA:1,_RNvNtNtCsyULe2umut5_4pmix8data_ops5testss_15test_pdata_proc
FNDA:1,_RNvNtNtCsyULe2umut5_4pmix8data_ops5testss_32test_fence_callback_trait_object
FNDA:1,_RNvNtNtCsyULe2umut5_4pmix8data_ops5testss_33test_lookup_callback_trait_object
FNDA:1,_RNvNtNtCsyULe2umut5_4pmix8data_ops5testss_34test_publish_callback_trait_object
FNDA:1,_RNvNtNtCsyULe2umut5_4pmix8data_ops5testss_36test_get_value_callback_trait_object
FNDA:1,_RNvNtNtCsyULe2umut5_4pmix8data_ops5testss_36test_unpublish_callback_trait_object
FNDA:0,_RNvXNvNtNtCsyULe2umut5_4pmix8data_ops5testss_32test_fence_callback_trait_objectNtB2_10DummyFenceNtB6_13FenceCallback11on_complete
FNDA:0,_RNvXNvNtNtCsyULe2umut5_4pmix8data_ops5testss_33test_lookup_callback_trait_objectNtB2_11DummyLookupNtB6_14LookupCallback9on_result
FNDA:0,_RNvXNvNtNtCsyULe2umut5_4pmix8data_ops5testss_34test_publish_callback_trait_objectNtB2_12DummyPublishNtB6_15PublishCallback11on_complete
FNDA:0,_RNvXNvNtNtCsyULe2umut5_4pmix8data_ops5testss_36test_get_value_callback_trait_objectNtB2_13DummyGetValueNtB6_16GetValueCallback9on_result
FNDA:0,_RNvXNvNtNtCsyULe2umut5_4pmix8data_ops5testss_36test_unpublish_callback_trait_objectNtB2_14DummyUnpublishNtB6_17UnpublishCallback11on_complete
FNDA:2,_RNvMs_NtCsyULe2umut5_4pmix8data_opsNtB4_9PmixPdata3new
FNDA:0,_RNCNvMs_NtCsyULe2umut5_4pmix8data_opsNtB6_9PmixPdata3new0B8_
FNDA:0,_RNCNvNtCsyULe2umut5_4pmix8data_ops10LOOKUP_SEQ0B5_
FNDA:0,_RNCNvNtCsyULe2umut5_4pmix8data_ops11PUBLISH_SEQ0B5_
FNDA:0,_RNCNvNtCsyULe2umut5_4pmix8data_ops12GET_REGISTRY0B5_
FNDA:0,_RNCNvNtCsyULe2umut5_4pmix8data_ops13UNPUBLISH_SEQ0B5_
FNDA:0,_RNCNvNtCsyULe2umut5_4pmix8data_ops14FENCE_REGISTRY0B5_
FNDA:0,_RNCNvNtCsyULe2umut5_4pmix8data_ops15LOOKUP_REGISTRY0B5_
FNDA:0,_RNCNvNtCsyULe2umut5_4pmix8data_ops16PUBLISH_REGISTRY0B5_
FNDA:0,_RNCNvNtCsyULe2umut5_4pmix8data_ops18UNPUBLISH_REGISTRY0B5_
FNDA:0,_RNCNvNtCsyULe2umut5_4pmix8data_ops7GET_SEQ0B5_
FNDA:0,_RNCNvNtCsyULe2umut5_4pmix8data_ops9FENCE_SEQ0B5_
FNDA:0,_RNCNvNtCsyULe2umut5_4pmix8data_ops22lookup_callback_bridge0B5_
FNDA:0,_RNCNvNtCsyULe2umut5_4pmix8data_ops6lookup0B5_
FNDA:0,_RNCNvNtCsyULe2umut5_4pmix8data_ops8fence_nb0B5_
FNDA:0,_RNvNtCsyULe2umut5_4pmix8data_ops10publish_nb
FNDA:0,_RNvNtCsyULe2umut5_4pmix8data_ops12unpublish_nb
FNDA:0,_RNvNtCsyULe2umut5_4pmix8data_ops14store_internal
FNDA:0,_RNvNtCsyULe2umut5_4pmix8data_ops21fence_callback_bridge
FNDA:0,_RNvNtCsyULe2umut5_4pmix8data_ops22lookup_callback_bridge
FNDA:0,_RNvNtCsyULe2umut5_4pmix8data_ops23publish_callback_bridge
FNDA:0,_RNvNtCsyULe2umut5_4pmix8data_ops25get_value_callback_bridge
FNDA:0,_RNvNtCsyULe2umut5_4pmix8data_ops25unpublish_callback_bridge
FNDA:0,_RNvNtCsyULe2umut5_4pmix8data_ops3get
FNDA:0,_RNvNtCsyULe2umut5_4pmix8data_ops6get_nb
FNDA:0,_RNvNtCsyULe2umut5_4pmix8data_ops6lookup
FNDA:0,_RNvNtCsyULe2umut5_4pmix8data_ops7publish
FNDA:0,_RNvNtCsyULe2umut5_4pmix8data_ops8fence_nb
FNDA:0,_RNvNtCsyULe2umut5_4pmix8data_ops9lookup_nb
FNDA:0,_RNvNtCsyULe2umut5_4pmix8data_ops9unpublish
FNDA:0,_RNvXNtCsyULe2umut5_4pmix8data_opsNtB2_9PmixPdataNtNtCs27Vx93FoQ6z_4core3fmt5Debug3fmt
FNF:43
FNH:8
DA:45,0
DA:46,0
DA:47,0
DA:49,0
DA:52,0
DA:57,0
DA:60,0
DA:61,0
DA:62,0
DA:64,0
DA:66,0
DA:79,0
DA:82,0
DA:89,0
DA:90,0
DA:91,0
DA:92,0
DA:96,0
DA:99,0
DA:100,0
DA:101,0
DA:104,0
DA:105,0
DA:106,0
DA:110,0
DA:111,0
DA:112,0
DA:135,0
DA:137,0
DA:138,0
DA:139,0
DA:140,0
DA:142,0
DA:143,0
DA:144,0
DA:145,0
DA:150,0
DA:153,0
DA:154,0
DA:156,0
DA:160,0
DA:165,0
DA:168,0
DA:170,0
DA:172,0
DA:176,0
DA:177,0
DA:178,0
DA:180,0
DA:202,0
DA:205,0
DA:212,0
DA:213,0
DA:214,0
DA:215,0
DA:216,0
DA:217,0
DA:218,0
DA:219,0
DA:223,0
DA:226,0
DA:227,0
DA:228,0
DA:231,0
DA:232,0
DA:233,0
DA:237,0
DA:240,0
DA:244,0
DA:246,0
DA:247,0
DA:249,0
DA:253,0
DA:254,0
DA:279,0
DA:280,0
DA:281,0
DA:282,0
DA:283,0
DA:284,0
DA:286,0
DA:287,0
DA:288,0
DA:289,0
DA:291,0
DA:292,0
DA:293,0
DA:294,0
DA:299,0
DA:302,0
DA:303,0
DA:306,0
DA:307,0
DA:308,0
DA:312,0
DA:313,0
DA:314,0
DA:315,0
DA:317,0
DA:320,0
DA:324,0
DA:325,0
DA:326,0
DA:327,0
DA:328,0
DA:329,0
DA:330,0
DA:331,0
DA:335,0
DA:337,0
DA:339,0
DA:343,0
DA:344,0
DA:345,0
DA:347,0
DA:377,0
DA:379,0
DA:380,0
DA:383,0
DA:388,0
DA:389,0
DA:390,0
DA:391,0
DA:393,0
DA:396,0
DA:400,0
DA:401,0
DA:408,0
DA:409,0
DA:410,0
DA:411,0
DA:412,0
DA:413,0
DA:417,0
DA:419,0
DA:421,0
DA:426,0
DA:428,0
DA:430,0
DA:432,0
DA:453,0
DA:454,0
DA:455,0
DA:456,0
DA:457,0
DA:458,0
DA:466,2
DA:468,2
DA:469,2
DA:470,2
DA:471,2
DA:473,2
DA:504,0
DA:505,0
DA:506,0
DA:507,0
DA:508,0
DA:509,0
DA:510,0
DA:513,0
DA:514,0
DA:516,0
DA:517,0
DA:518,0
DA:519,0
DA:520,0
DA:521,0
DA:522,0
DA:523,0
DA:524,0
DA:525,0
DA:526,0
DA:527,0
DA:528,0
DA:529,0
DA:530,0
DA:531,0
DA:532,0
DA:533,0
DA:534,0
DA:535,0
DA:536,0
DA:537,0
DA:538,0
DA:539,0
DA:540,0
DA:541,0
DA:542,0
DA:543,0
DA:546,0
DA:547,0
DA:548,0
DA:552,0
DA:558,0
DA:561,0
DA:564,0
DA:565,0
DA:566,0
DA:569,0
DA:570,0
DA:571,0
DA:572,0
DA:574,0
DA:575,0
DA:578,0
DA:579,0
DA:581,0
DA:582,0
DA:584,0
DA:587,0
DA:591,0
DA:592,0
DA:593,0
DA:594,0
DA:595,0
DA:599,0
DA:602,0
DA:603,0
DA:605,0
DA:624,0
DA:627,0
DA:634,0
DA:635,0
DA:636,0
DA:637,0
DA:638,0
DA:639,0
DA:640,0
DA:641,0
DA:642,0
DA:645,0
DA:648,0
DA:649,0
DA:650,0
DA:652,0
DA:653,0
DA:656,0
DA:658,0
DA:659,0
DA:660,0
DA:661,0
DA:662,0
DA:663,0
DA:665,0
DA:666,0
DA:671,0
DA:673,0
DA:674,0
DA:676,0
DA:677,0
DA:678,0
DA:680,0
DA:681,0
DA:682,0
DA:683,0
DA:684,0
DA:685,0
DA:686,0
DA:688,0
DA:689,0
DA:692,0
DA:693,0
DA:694,0
DA:695,0
DA:697,0
DA:700,0
DA:701,0
DA:702,0
DA:703,0
DA:704,0
DA:708,0
DA:709,0
DA:710,0
DA:711,0
DA:713,0
DA:716,0
DA:717,0
DA:747,0
DA:748,0
DA:749,0
DA:750,0
DA:751,0
DA:752,0
DA:753,0
DA:754,0
DA:757,0
DA:758,0
DA:759,0
DA:760,0
DA:762,0
DA:763,0
DA:764,0
DA:765,0
DA:768,0
DA:771,0
DA:772,0
DA:774,0
DA:775,0
DA:776,0
DA:777,0
DA:778,0
DA:781,0
DA:782,0
DA:783,0
DA:787,0
DA:788,0
DA:789,0
DA:791,0
DA:794,0
DA:795,0
DA:796,0
DA:800,0
DA:806,0
DA:807,0
DA:808,0
DA:809,0
DA:810,0
DA:811,0
DA:815,0
DA:817,0
DA:819,0
DA:823,0
DA:824,0
DA:825,0
DA:827,0
DA:844,0
DA:847,0
DA:854,0
DA:855,0
DA:856,0
DA:857,0
DA:861,0
DA:864,0
DA:865,0
DA:866,0
DA:869,0
DA:870,0
DA:871,0
DA:875,0
DA:876,0
DA:877,0
DA:905,0
DA:907,0
DA:908,0
DA:910,0
DA:911,0
DA:912,0
DA:914,0
DA:915,0
DA:916,0
DA:917,0
DA:918,0
DA:921,0
DA:925,0
DA:926,0
DA:927,0
DA:929,0
DA:934,0
DA:936,0
DA:940,0
DA:941,0
DA:942,0
DA:946,0
DA:952,0
DA:955,0
DA:956,0
DA:957,0
DA:959,0
DA:961,0
DA:994,0
DA:995,0
DA:996,0
DA:997,0
DA:998,0
DA:1000,0
DA:1001,0
DA:1002,0
DA:1003,0
DA:1005,0
DA:1006,0
DA:1007,0
DA:1008,0
DA:1011,0
DA:1014,0
DA:1015,0
DA:1017,0
DA:1018,0
DA:1019,0
DA:1021,0
DA:1022,0
DA:1023,0
DA:1024,0
DA:1025,0
DA:1028,0
DA:1029,0
DA:1030,0
DA:1034,0
DA:1035,0
DA:1036,0
DA:1038,0
DA:1042,0
DA:1044,0
DA:1048,0
DA:1049,0
DA:1050,0
DA:1054,0
DA:1062,0
DA:1063,0
DA:1064,0
DA:1065,0
DA:1066,0
DA:1067,0
DA:1071,0
DA:1073,0
DA:1075,0
DA:1079,0
DA:1080,0
DA:1081,0
DA:1083,0
DA:1118,0
DA:1120,0
DA:1121,0
DA:1123,0
DA:1128,0
DA:1137,0
DA:1138,0
DA:1139,0
DA:1140,0
DA:1144,0
DA:1145,0
DA:1146,0
DA:1148,0
DA:1150,0
DA:1167,0
DA:1170,0
DA:1177,0
DA:1178,0
DA:1179,0
DA:1180,0
DA:1184,0
DA:1187,0
DA:1188,0
DA:1189,0
DA:1192,0
DA:1193,0
DA:1194,0
DA:1198,0
DA:1199,0
DA:1200,0
DA:1244,0
DA:1245,0
DA:1246,0
DA:1247,0
DA:1248,0
DA:1250,0
DA:1251,0
DA:1252,0
DA:1253,0
DA:1255,0
DA:1256,0
DA:1257,0
DA:1258,0
DA:1263,0
DA:1266,0
DA:1267,0
DA:1277,0
DA:1278,0
DA:1279,0
DA:1283,0
DA:1284,0
DA:1285,0
DA:1289,0
DA:1299,0
DA:1300,0
DA:1301,0
DA:1302,0
DA:1303,0
DA:1304,0
DA:1305,0
DA:1309,0
DA:1311,0
DA:1313,0
DA:1317,0
DA:1318,0
DA:1319,0
DA:1321,0
DA:1328,1
DA:1329,1
DA:1330,1
DA:1331,1
DA:1332,1
DA:1335,1
DA:1336,1
DA:1337,1
DA:1338,1
DA:1341,1
DA:1344,0
DA:1346,1
DA:1347,1
DA:1348,1
DA:1351,1
DA:1354,0
DA:1356,1
DA:1357,1
DA:1358,1
DA:1361,1
DA:1364,0
DA:1366,1
DA:1367,1
DA:1368,1
DA:1371,1
DA:1374,0
DA:1376,1
DA:1377,1
DA:1378,1
DA:1381,1
DA:1384,0
DA:1386,1
DA:1387,1
DA:1388,1
BRF:0
BRH:0
LF:524
LH:35
end_of_record
SF:/home/bzf/projects/pmix-rs/src/data_serialization.rs
FN:71,_RNvMNtCsyULe2umut5_4pmix18data_serializationNtB2_11PmixProcRef3new
FN:217,_RNvMs3_NtCsyULe2umut5_4pmix18data_serializationNtB5_14PmixDataBuffer10as_mut_ptr
FN:236,_RNvMs3_NtCsyULe2umut5_4pmix18data_serializationNtB5_14PmixDataBuffer10bytes_used
FN:227,_RNvMs3_NtCsyULe2umut5_4pmix18data_serializationNtB5_14PmixDataBuffer15bytes_allocated
FN:251,_RNvMs3_NtCsyULe2umut5_4pmix18data_serializationNtB5_14PmixDataBuffer8from_raw
FN:222,_RNvMs3_NtCsyULe2umut5_4pmix18data_serializationNtB5_14PmixDataBuffer8is_valid
FN:109,_RNvMs_NtCsyULe2umut5_4pmix18data_serializationNtB4_14PmixByteObject3new
FN:131,_RNvMs_NtCsyULe2umut5_4pmix18data_serializationNtB4_14PmixByteObject4size
FN:119,_RNvMs_NtCsyULe2umut5_4pmix18data_serializationNtB4_14PmixByteObject8as_slice
FN:136,_RNvMs_NtCsyULe2umut5_4pmix18data_serializationNtB4_14PmixByteObject8is_empty
FN:1031,_RNvNtCsyULe2umut5_4pmix18data_serialization13data_compress
FN:1117,_RNvNtCsyULe2umut5_4pmix18data_serialization15data_decompress
FN:308,_RNvNtCsyULe2umut5_4pmix18data_serialization18data_buffer_create
FN:268,_RNvXs5_NtCsyULe2umut5_4pmix18data_serializationNtB5_14PmixDataBufferNtNtCs27Vx93FoQ6z_4core3fmt5Debug3fmt
FN:177,_RNvXs2_NtCsyULe2umut5_4pmix18data_serializationNtB5_14PmixByteObjectNtNtNtCs27Vx93FoQ6z_4core3ops4drop4Drop4drop
FN:257,_RNvXs4_NtCsyULe2umut5_4pmix18data_serializationNtB5_14PmixDataBufferNtNtNtCs27Vx93FoQ6z_4core3ops4drop4Drop4drop
FN:780,_RINvNtCsyULe2umut5_4pmix18data_serialization10data_printpEB4_
FN:495,_RINvNtCsyULe2umut5_4pmix18data_serialization11data_unpackpEB4_
FN:667,_RINvNtCsyULe2umut5_4pmix18data_serialization9data_copypEB4_
FN:396,_RINvNtCsyULe2umut5_4pmix18data_serialization9data_packpEB4_
FN:790,_RNCINvNtCsyULe2umut5_4pmix18data_serialization10data_printpE0B6_
FN:83,_RNCNvMNtCsyULe2umut5_4pmix18data_serializationNtB4_11PmixProcRef6to_raw0B6_
FN:75,_RNvMNtCsyULe2umut5_4pmix18data_serializationNtB2_11PmixProcRef6to_raw
FN:872,_RNvMs6_NtCsyULe2umut5_4pmix18data_serializationNtB5_15PmixPrintOutput6as_str
FN:851,_RNvMs6_NtCsyULe2umut5_4pmix18data_serializationNtB5_15PmixPrintOutput8from_raw
FN:141,_RNvMs_NtCsyULe2umut5_4pmix18data_serializationNtB4_14PmixByteObject10as_mut_ptr
FN:957,_RNvNtCsyULe2umut5_4pmix18data_serialization10data_embed
FN:568,_RNvNtCsyULe2umut5_4pmix18data_serialization11data_unload
FN:713,_RNvNtCsyULe2umut5_4pmix18data_serialization17data_copy_payload
FN:336,_RNvNtCsyULe2umut5_4pmix18data_serialization19data_buffer_release
FN:619,_RNvNtCsyULe2umut5_4pmix18data_serialization9data_load
FN:147,_RNvXs0_NtCsyULe2umut5_4pmix18data_serializationNtB5_14PmixByteObjectNtNtCs27Vx93FoQ6z_4core7default7Default7default
FN:153,_RNvXs1_NtCsyULe2umut5_4pmix18data_serializationNtB5_14PmixByteObjectINtNtCs27Vx93FoQ6z_4core7convert4FromINtNtCsgW8esjfipvk_5alloc3vec3VechEE4from
FN:880,_RNvXs7_NtCsyULe2umut5_4pmix18data_serializationNtB5_15PmixPrintOutputNtNtNtCs27Vx93FoQ6z_4core3ops5deref5Deref5deref
FN:886,_RNvXs8_NtCsyULe2umut5_4pmix18data_serializationNtB5_15PmixPrintOutputNtNtCs27Vx93FoQ6z_4core3fmt7Display3fmt
FN:892,_RNvXs9_NtCsyULe2umut5_4pmix18data_serializationNtB5_15PmixPrintOutputNtNtCs27Vx93FoQ6z_4core3fmt5Debug3fmt
FN:898,_RNvXsa_NtCsyULe2umut5_4pmix18data_serializationNtNtCsgW8esjfipvk_5alloc6string6StringINtNtCs27Vx93FoQ6z_4core7convert4FromNtB5_15PmixPrintOutputE4from
FN:1176,_RNvNtNtCsyULe2umut5_4pmix18data_serialization5testss_17test_proc_ref_new
FN:1161,_RNvNtNtCsyULe2umut5_4pmix18data_serialization5testss_20test_byte_object_new
FN:1169,_RNvNtNtCsyULe2umut5_4pmix18data_serialization5testss_22test_byte_object_debug
FN:1215,_RNvNtNtCsyULe2umut5_4pmix18data_serialization5testss_23test_data_buffer_create
FN:1197,_RNvNtNtCsyULe2umut5_4pmix18data_serialization5testss_24test_data_compress_empty
FN:1181,_RNvNtNtCsyULe2umut5_4pmix18data_serialization5testss_27test_data_buffer_debug_null
FN:1189,_RNvNtNtCsyULe2umut5_4pmix18data_serialization5testss_30test_data_buffer_bytes_on_null
FN:1205,_RNvNtNtCsyULe2umut5_4pmix18data_serialization5testss_39test_data_compress_decompress_roundtrip
FNDA:1,_RNvMNtCsyULe2umut5_4pmix18data_serializationNtB2_11PmixProcRef3new
FNDA:1,_RNvMs3_NtCsyULe2umut5_4pmix18data_serializationNtB5_14PmixDataBuffer10as_mut_ptr
FNDA:2,_RNvMs3_NtCsyULe2umut5_4pmix18data_serializationNtB5_14PmixDataBuffer10bytes_used
FNDA:2,_RNvMs3_NtCsyULe2umut5_4pmix18data_serializationNtB5_14PmixDataBuffer15bytes_allocated
FNDA:2,_RNvMs3_NtCsyULe2umut5_4pmix18data_serializationNtB5_14PmixDataBuffer8from_raw
FNDA:2,_RNvMs3_NtCsyULe2umut5_4pmix18data_serializationNtB5_14PmixDataBuffer8is_valid
FNDA:2,_RNvMs_NtCsyULe2umut5_4pmix18data_serializationNtB4_14PmixByteObject3new
FNDA:1,_RNvMs_NtCsyULe2umut5_4pmix18data_serializationNtB4_14PmixByteObject4size
FNDA:1,_RNvMs_NtCsyULe2umut5_4pmix18data_serializationNtB4_14PmixByteObject8as_slice
FNDA:1,_RNvMs_NtCsyULe2umut5_4pmix18data_serializationNtB4_14PmixByteObject8is_empty
FNDA:2,_RNvNtCsyULe2umut5_4pmix18data_serialization13data_compress
FNDA:0,_RNvNtCsyULe2umut5_4pmix18data_serialization15data_decompress
FNDA:1,_RNvNtCsyULe2umut5_4pmix18data_serialization18data_buffer_create
FNDA:1,_RNvXs5_NtCsyULe2umut5_4pmix18data_serializationNtB5_14PmixDataBufferNtNtCs27Vx93FoQ6z_4core3fmt5Debug3fmt
FNDA:2,_RNvXs2_NtCsyULe2umut5_4pmix18data_serializationNtB5_14PmixByteObjectNtNtNtCs27Vx93FoQ6z_4core3ops4drop4Drop4drop
FNDA:3,_RNvXs4_NtCsyULe2umut5_4pmix18data_serializationNtB5_14PmixDataBufferNtNtNtCs27Vx93FoQ6z_4core3ops4drop4Drop4drop
FNDA:0,_RINvNtCsyULe2umut5_4pmix18data_serialization10data_printpEB4_
FNDA:0,_RINvNtCsyULe2umut5_4pmix18data_serialization11data_unpackpEB4_
FNDA:0,_RINvNtCsyULe2umut5_4pmix18data_serialization9data_copypEB4_
FNDA:0,_RINvNtCsyULe2umut5_4pmix18data_serialization9data_packpEB4_
FNDA:0,_RNCINvNtCsyULe2umut5_4pmix18data_serialization10data_printpE0B6_
FNDA:0,_RNCNvMNtCsyULe2umut5_4pmix18data_serializationNtB4_11PmixProcRef6to_raw0B6_
FNDA:0,_RNvMNtCsyULe2umut5_4pmix18data_serializationNtB2_11PmixProcRef6to_raw
FNDA:0,_RNvMs6_NtCsyULe2umut5_4pmix18data_serializationNtB5_15PmixPrintOutput6as_str
FNDA:0,_RNvMs6_NtCsyULe2umut5_4pmix18data_serializationNtB5_15PmixPrintOutput8from_raw
FNDA:0,_RNvMs_NtCsyULe2umut5_4pmix18data_serializationNtB4_14PmixByteObject10as_mut_ptr
FNDA:0,_RNvNtCsyULe2umut5_4pmix18data_serialization10data_embed
FNDA:0,_RNvNtCsyULe2umut5_4pmix18data_serialization11data_unload
FNDA:0,_RNvNtCsyULe2umut5_4pmix18data_serialization17data_copy_payload
FNDA:0,_RNvNtCsyULe2umut5_4pmix18data_serialization19data_buffer_release
FNDA:0,_RNvNtCsyULe2umut5_4pmix18data_serialization9data_load
FNDA:0,_RNvXs0_NtCsyULe2umut5_4pmix18data_serializationNtB5_14PmixByteObjectNtNtCs27Vx93FoQ6z_4core7default7Default7default
FNDA:0,_RNvXs1_NtCsyULe2umut5_4pmix18data_serializationNtB5_14PmixByteObjectINtNtCs27Vx93FoQ6z_4core7convert4FromINtNtCsgW8esjfipvk_5alloc3vec3VechEE4from
FNDA:0,_RNvXs7_NtCsyULe2umut5_4pmix18data_serializationNtB5_15PmixPrintOutputNtNtNtCs27Vx93FoQ6z_4core3ops5deref5Deref5deref
FNDA:0,_RNvXs8_NtCsyULe2umut5_4pmix18data_serializationNtB5_15PmixPrintOutputNtNtCs27Vx93FoQ6z_4core3fmt7Display3fmt
FNDA:0,_RNvXs9_NtCsyULe2umut5_4pmix18data_serializationNtB5_15PmixPrintOutputNtNtCs27Vx93FoQ6z_4core3fmt5Debug3fmt
FNDA:0,_RNvXsa_NtCsyULe2umut5_4pmix18data_serializationNtNtCsgW8esjfipvk_5alloc6string6StringINtNtCs27Vx93FoQ6z_4core7convert4FromNtB5_15PmixPrintOutputE4from
FNDA:1,_RNvNtNtCsyULe2umut5_4pmix18data_serialization5testss_17test_proc_ref_new
FNDA:1,_RNvNtNtCsyULe2umut5_4pmix18data_serialization5testss_20test_byte_object_new
FNDA:1,_RNvNtNtCsyULe2umut5_4pmix18data_serialization5testss_22test_byte_object_debug
FNDA:1,_RNvNtNtCsyULe2umut5_4pmix18data_serialization5testss_23test_data_buffer_create
FNDA:1,_RNvNtNtCsyULe2umut5_4pmix18data_serialization5testss_24test_data_compress_empty
FNDA:1,_RNvNtNtCsyULe2umut5_4pmix18data_serialization5testss_27test_data_buffer_debug_null
FNDA:1,_RNvNtNtCsyULe2umut5_4pmix18data_serialization5testss_30test_data_buffer_bytes_on_null
FNDA:1,_RNvNtNtCsyULe2umut5_4pmix18data_serialization5testss_39test_data_compress_decompress_roundtrip
FNF:45
FNH:23
DA:71,1
DA:72,1
DA:73,1
DA:75,0
DA:76,0
DA:77,0
DA:79,0
DA:80,0
DA:81,0
DA:82,0
DA:83,0
DA:84,0
DA:85,0
DA:86,0
DA:87,0
DA:88,0
DA:109,2
DA:110,2
DA:111,2
DA:112,2
DA:113,2
DA:114,2
DA:115,2
DA:116,2
DA:119,1
DA:120,1
DA:121,1
DA:126,0
DA:128,1
DA:131,1
DA:132,1
DA:133,1
DA:136,1
DA:137,1
DA:138,1
DA:141,0
DA:142,0
DA:143,0
DA:147,0
DA:148,0
DA:149,0
DA:153,0
DA:154,0
DA:155,0
DA:156,0
DA:157,0
DA:160,0
DA:161,0
DA:162,0
DA:163,0
DA:164,0
DA:165,0
DA:166,0
DA:167,0
DA:168,0
DA:169,0
DA:170,0
DA:171,0
DA:172,0
DA:173,0
DA:177,2
DA:181,2
DA:182,2
DA:217,1
DA:218,1
DA:219,1
DA:222,2
DA:223,2
DA:224,2
DA:227,2
DA:228,2
DA:229,1
DA:230,1
DA:232,1
DA:233,2
DA:236,2
DA:237,2
DA:238,1
DA:239,1
DA:241,1
DA:242,2
DA:251,2
DA:252,2
DA:253,2
DA:257,3
DA:258,3
DA:259,1
DA:260,1
DA:261,1
DA:262,1
DA:263,2
DA:264,3
DA:268,1
DA:269,1
DA:270,1
DA:271,1
DA:272,1
DA:274,0
DA:275,0
DA:276,0
DA:277,0
DA:278,0
DA:280,1
DA:308,1
DA:311,1
DA:312,1
DA:313,0
DA:314,1
DA:315,1
DA:316,1
DA:336,0
DA:337,0
DA:338,0
DA:339,0
DA:340,0
DA:341,0
DA:342,0
DA:343,0
DA:396,0
DA:397,0
DA:398,0
DA:399,0
DA:400,0
DA:401,0
DA:402,0
DA:403,0
DA:404,0
DA:405,0
DA:407,0
DA:408,0
DA:412,0
DA:414,0
DA:423,0
DA:424,0
DA:425,0
DA:426,0
DA:427,0
DA:428,0
DA:429,0
DA:433,0
DA:434,0
DA:435,0
DA:437,0
DA:439,0
DA:495,0
DA:496,0
DA:497,0
DA:498,0
DA:499,0
DA:500,0
DA:501,0
DA:502,0
DA:503,0
DA:504,0
DA:506,0
DA:515,0
DA:516,0
DA:517,0
DA:518,0
DA:519,0
DA:520,0
DA:521,0
DA:525,0
DA:526,0
DA:527,0
DA:529,0
DA:531,0
DA:568,0
DA:569,0
DA:575,0
DA:577,0
DA:578,0
DA:579,0
DA:582,0
DA:584,0
DA:619,0
DA:624,0
DA:625,0
DA:626,0
DA:627,0
DA:631,0
DA:632,0
DA:633,0
DA:635,0
DA:637,0
DA:667,0
DA:668,0
DA:669,0
DA:670,0
DA:671,0
DA:676,0
DA:677,0
DA:678,0
DA:679,0
DA:680,0
DA:684,0
DA:685,0
DA:686,0
DA:688,0
DA:690,0
DA:713,0
DA:716,0
DA:718,0
DA:719,0
DA:720,0
DA:722,0
DA:724,0
DA:780,0
DA:781,0
DA:782,0
DA:783,0
DA:784,0
DA:785,0
DA:788,0
DA:789,0
DA:790,0
DA:792,0
DA:793,0
DA:794,0
DA:796,0
DA:804,0
DA:805,0
DA:806,0
DA:807,0
DA:808,0
DA:809,0
DA:814,0
DA:817,0
DA:818,0
DA:819,0
DA:820,0
DA:822,0
DA:823,0
DA:827,0
DA:829,0
DA:831,0
DA:851,0
DA:852,0
DA:853,0
DA:854,0
DA:855,0
DA:856,0
DA:859,0
DA:860,0
DA:861,0
DA:865,0
DA:866,0
DA:867,0
DA:868,0
DA:869,0
DA:872,0
DA:873,0
DA:874,0
DA:880,0
DA:881,0
DA:882,0
DA:886,0
DA:887,0
DA:888,0
DA:892,0
DA:893,0
DA:894,0
DA:898,0
DA:899,0
DA:900,0
DA:957,0
DA:958,0
DA:959,0
DA:960,0
DA:963,0
DA:964,0
DA:965,0
DA:973,0
DA:974,0
DA:975,0
DA:976,0
DA:980,0
DA:981,0
DA:982,0
DA:984,0
DA:986,0
DA:1031,2
DA:1032,2
DA:1033,1
DA:1034,1
DA:1036,1
DA:1037,1
DA:1043,1
DA:1044,1
DA:1047,1
DA:1050,1
DA:1053,0
DA:1055,0
DA:1056,0
DA:1059,1
DA:1061,0
DA:1065,0
DA:1066,0
DA:1067,0
DA:1068,0
DA:1070,2
DA:1117,0
DA:1118,0
DA:1119,0
DA:1120,0
DA:1122,0
DA:1123,0
DA:1131,0
DA:1132,0
DA:1135,0
DA:1136,0
DA:1139,0
DA:1141,0
DA:1142,0
DA:1144,0
DA:1146,0
DA:1149,0
DA:1150,0
DA:1151,0
DA:1152,0
DA:1154,0
DA:1161,1
DA:1162,1
DA:1163,1
DA:1164,1
DA:1165,1
DA:1166,1
DA:1169,1
DA:1170,1
DA:1171,1
DA:1172,1
DA:1173,1
DA:1176,1
DA:1177,1
DA:1178,1
DA:1181,1
DA:1182,1
DA:1183,1
DA:1184,1
DA:1185,1
DA:1186,1
DA:1189,1
DA:1190,1
DA:1191,1
DA:1192,1
DA:1193,1
DA:1194,1
DA:1197,1
DA:1198,1
DA:1199,0
DA:1200,1
DA:1201,1
DA:1205,1
DA:1206,1
DA:1207,1
DA:1208,0
DA:1209,0
DA:1210,0
DA:1211,1
DA:1212,1
DA:1215,1
DA:1216,1
DA:1217,1
DA:1218,1
DA:1219,1
DA:1220,0
DA:1221,1
BRF:0
BRH:0
LF:369
LH:118
end_of_record
SF:/home/bzf/projects/pmix-rs/src/events.rs
FN:552,_RNvNtNtCsyULe2umut5_4pmix6events5testss_18test_op_cb_fn_none
FN:546,_RNvNtNtCsyULe2umut5_4pmix6events5testss_25test_notification_fn_none
FN:540,_RNvNtNtCsyULe2umut5_4pmix6events5testss_27test_event_handler_ref_type
FN:456,_RNvNtCsyULe2umut5_4pmix6events12notify_event
FN:503,_RNvNtCsyULe2umut5_4pmix6events15notify_event_nb
FN:144,_RNvNtCsyULe2umut5_4pmix6events19notification_bridge
FN:177,_RNvNtCsyULe2umut5_4pmix6events20wrap_notification_fn
FN:226,_RNvNtCsyULe2umut5_4pmix6events22register_event_handler
FN:376,_RNvNtCsyULe2umut5_4pmix6events24deregister_event_handler
FN:306,_RNvNtCsyULe2umut5_4pmix6events25register_event_handler_nb
FN:406,_RNvNtCsyULe2umut5_4pmix6events27deregister_event_handler_nb
FNDA:1,_RNvNtNtCsyULe2umut5_4pmix6events5testss_18test_op_cb_fn_none
FNDA:1,_RNvNtNtCsyULe2umut5_4pmix6events5testss_25test_notification_fn_none
FNDA:1,_RNvNtNtCsyULe2umut5_4pmix6events5testss_27test_event_handler_ref_type
FNDA:0,_RNvNtCsyULe2umut5_4pmix6events12notify_event
FNDA:0,_RNvNtCsyULe2umut5_4pmix6events15notify_event_nb
FNDA:0,_RNvNtCsyULe2umut5_4pmix6events19notification_bridge
FNDA:0,_RNvNtCsyULe2umut5_4pmix6events20wrap_notification_fn
FNDA:0,_RNvNtCsyULe2umut5_4pmix6events22register_event_handler
FNDA:0,_RNvNtCsyULe2umut5_4pmix6events24deregister_event_handler
FNDA:0,_RNvNtCsyULe2umut5_4pmix6events25register_event_handler_nb
FNDA:0,_RNvNtCsyULe2umut5_4pmix6events27deregister_event_handler_nb
FNF:11
FNH:3
DA:144,0
DA:145,0
DA:146,0
DA:147,0
DA:148,0
DA:149,0
DA:150,0
DA:151,0
DA:152,0
DA:153,0
DA:154,0
DA:159,0
DA:160,0
DA:161,0
DA:162,0
DA:163,0
DA:164,0
DA:165,0
DA:166,0
DA:167,0
DA:168,0
DA:169,0
DA:170,0
DA:171,0
DA:173,0
DA:177,0
DA:178,0
DA:180,0
DA:181,0
DA:182,0
DA:183,0
DA:184,0
DA:186,0
DA:188,0
DA:226,0
DA:227,0
DA:228,0
DA:229,0
DA:230,0
DA:231,0
DA:232,0
DA:233,0
DA:237,0
DA:240,0
DA:241,0
DA:243,0
DA:246,0
DA:252,0
DA:253,0
DA:254,0
DA:255,0
DA:256,0
DA:257,0
DA:258,0
DA:259,0
DA:260,0
DA:269,0
DA:270,0
DA:271,0
DA:272,0
DA:273,0
DA:274,0
DA:275,0
DA:276,0
DA:277,0
DA:279,0
DA:280,0
DA:281,0
DA:283,0
DA:285,0
DA:306,0
DA:307,0
DA:308,0
DA:309,0
DA:310,0
DA:311,0
DA:312,0
DA:313,0
DA:314,0
DA:316,0
DA:319,0
DA:320,0
DA:322,0
DA:325,0
DA:331,0
DA:332,0
DA:333,0
DA:334,0
DA:335,0
DA:336,0
DA:337,0
DA:338,0
DA:339,0
DA:343,0
DA:344,0
DA:345,0
DA:347,0
DA:349,0
DA:376,0
DA:377,0
DA:378,0
DA:379,0
DA:382,0
DA:383,0
DA:385,0
DA:386,0
DA:387,0
DA:389,0
DA:391,0
DA:406,0
DA:407,0
DA:408,0
DA:409,0
DA:410,0
DA:413,0
DA:415,0
DA:416,0
DA:417,0
DA:419,0
DA:421,0
DA:456,0
DA:457,0
DA:458,0
DA:459,0
DA:460,0
DA:461,0
DA:462,0
DA:463,0
DA:465,0
DA:471,0
DA:472,0
DA:473,0
DA:474,0
DA:475,0
DA:476,0
DA:477,0
DA:478,0
DA:479,0
DA:483,0
DA:484,0
DA:485,0
DA:503,0
DA:504,0
DA:505,0
DA:506,0
DA:507,0
DA:508,0
DA:509,0
DA:510,0
DA:511,0
DA:512,0
DA:514,0
DA:519,0
DA:520,0
DA:521,0
DA:522,0
DA:523,0
DA:524,0
DA:525,0
DA:526,0
DA:527,0
DA:531,0
DA:532,0
DA:533,0
DA:540,1
DA:541,1
DA:542,1
DA:543,1
DA:546,1
DA:547,1
DA:548,1
DA:549,1
DA:552,1
DA:553,1
DA:554,1
DA:555,1
BRF:0
BRH:0
LF:176
LH:12
end_of_record
SF:/home/bzf/projects/pmix-rs/src/fabric.rs
FN:1159,_RNvNtNtCsyULe2umut5_4pmix6fabric5testss_17test_fabric_debug
FN:1266,_RNvNtNtCsyULe2umut5_4pmix6fabric5testss_21test_fabric_lifecycle
FN:1126,_RNvNtNtCsyULe2umut5_4pmix6fabric5testss_22test_fabric_new_unamed
FN:1152,_RNvNtNtCsyULe2umut5_4pmix6fabric5testss_24test_fabric_new_nul_name
FN:1413,_RNvNtNtCsyULe2umut5_4pmix6fabric5testss_25test_device_distance_uuid
FN:1144,_RNvNtNtCsyULe2umut5_4pmix6fabric5testss_25test_fabric_new_none_name
FN:1136,_RNvNtNtCsyULe2umut5_4pmix6fabric5testss_25test_fabric_new_with_name
FN:1252,_RNvNtNtCsyULe2umut5_4pmix6fabric5testss_26test_fabric_register_named
FN:1420,_RNvNtNtCsyULe2umut5_4pmix6fabric5testss_27test_device_distance_osname
FN:1508,_RNvNtNtCsyULe2umut5_4pmix6fabric5testss_27test_device_distances_debug
FN:1472,_RNvNtNtCsyULe2umut5_4pmix6fabric5testss_27test_device_distances_empty
FN:1441,_RNvNtNtCsyULe2umut5_4pmix6fabric5testss_28test_device_distance_maxdist
FN:1434,_RNvNtNtCsyULe2umut5_4pmix6fabric5testss_28test_device_distance_mindist
FN:1481,_RNvNtNtCsyULe2umut5_4pmix6fabric5testss_28test_device_distances_single
FN:1294,_RNvNtNtCsyULe2umut5_4pmix6fabric5testss_29test_fabric_double_deregister
FN:1459,_RNvNtNtCsyULe2umut5_4pmix6fabric5testss_30test_device_distance_all_types
FN:1492,_RNvNtNtCsyULe2umut5_4pmix6fabric5testss_30test_device_distances_multiple
FN:1343,_RNvNtNtCsyULe2umut5_4pmix6fabric5testss_30test_fabric_update_nb_compiles
FN:1427,_RNvNtNtCsyULe2umut5_4pmix6fabric5testss_32test_device_distance_device_type
FN:1316,_RNvNtNtCsyULe2umut5_4pmix6fabric5testss_32test_fabric_register_nb_compiles
FN:1198,_RNvNtNtCsyULe2umut5_4pmix6fabric5testss_33test_fabric_callback_trait_object
FN:1169,_RNvNtNtCsyULe2umut5_4pmix6fabric5testss_33test_fabric_update_not_registered
FN:1448,_RNvNtNtCsyULe2umut5_4pmix6fabric5testss_34test_device_distance_empty_strings
FN:1365,_RNvNtNtCsyULe2umut5_4pmix6fabric5testss_34test_fabric_deregister_nb_compiles
FN:1518,_RNvNtNtCsyULe2umut5_4pmix6fabric5testss_35test_device_distances_drop_null_raw
FN:1208,_RNvNtNtCsyULe2umut5_4pmix6fabric5testss_35test_fabric_callback_records_status
FN:1387,_RNvNtNtCsyULe2umut5_4pmix6fabric5testss_36test_fabric_update_nb_not_registered
FN:1183,_RNvNtNtCsyULe2umut5_4pmix6fabric5testss_37test_fabric_deregister_not_registered
FN:1239,_RNvNtNtCsyULe2umut5_4pmix6fabric5testss_37test_fabric_register_empty_directives
FN:1399,_RNvNtNtCsyULe2umut5_4pmix6fabric5testss_40test_fabric_deregister_nb_not_registered
FN:1201,_RNvXNvNtNtCsyULe2umut5_4pmix6fabric5testss_33test_fabric_callback_trait_objectNtB2_6TestCbNtB6_14FabricCallback11on_complete
FN:1215,_RNvXNvNtNtCsyULe2umut5_4pmix6fabric5testss_35test_fabric_callback_records_statusNtB2_11RecordingCbNtB6_14FabricCallback11on_complete
FN:1390,_RNvXNvNtNtCsyULe2umut5_4pmix6fabric5testss_36test_fabric_update_nb_not_registeredNtB2_4NbCbNtB6_14FabricCallback11on_complete
FN:1402,_RNvXNvNtNtCsyULe2umut5_4pmix6fabric5testss_40test_fabric_deregister_nb_not_registeredNtB2_4NbCbNtB6_14FabricCallback11on_complete
FN:644,_RNvMs2_NtCsyULe2umut5_4pmix6fabricNtB5_10PmixCpuset10as_mut_ptr
FN:619,_RNvMs2_NtCsyULe2umut5_4pmix6fabricNtB5_10PmixCpuset3new
FN:705,_RNvMs5_NtCsyULe2umut5_4pmix6fabricNtB5_18PmixDeviceDistance11device_type
FN:695,_RNvMs5_NtCsyULe2umut5_4pmix6fabricNtB5_18PmixDeviceDistance4uuid
FN:700,_RNvMs5_NtCsyULe2umut5_4pmix6fabricNtB5_18PmixDeviceDistance6osname
FN:715,_RNvMs5_NtCsyULe2umut5_4pmix6fabricNtB5_18PmixDeviceDistance7maxdist
FN:710,_RNvMs5_NtCsyULe2umut5_4pmix6fabricNtB5_18PmixDeviceDistance7mindist
FN:752,_RNvMs5_NtCsyULe2umut5_4pmix6fabricNtB5_18PmixDeviceDistance8test_new
FN:788,_RNvMs6_NtCsyULe2umut5_4pmix6fabricNtB5_15DeviceDistances3len
FN:793,_RNvMs6_NtCsyULe2umut5_4pmix6fabricNtB5_15DeviceDistances8is_empty
FN:801,_RNvMs6_NtCsyULe2umut5_4pmix6fabricNtB5_15DeviceDistances8test_new
FN:783,_RNvMs6_NtCsyULe2umut5_4pmix6fabricNtB5_15DeviceDistances9distances
FN:169,_RNvMs_NtCsyULe2umut5_4pmix6fabricNtB4_10PmixFabric10as_mut_ptr
FN:156,_RNvMs_NtCsyULe2umut5_4pmix6fabricNtB4_10PmixFabric13is_registered
FN:188,_RNvMs_NtCsyULe2umut5_4pmix6fabricNtB4_10PmixFabric13sync_from_raw
FN:118,_RNvMs_NtCsyULe2umut5_4pmix6fabricNtB4_10PmixFabric3new
FN:146,_RNvMs_NtCsyULe2umut5_4pmix6fabricNtB4_10PmixFabric4name
FN:151,_RNvMs_NtCsyULe2umut5_4pmix6fabricNtB4_10PmixFabric5index
FN:161,_RNvMs_NtCsyULe2umut5_4pmix6fabricNtB4_10PmixFabric5ninfo
FN:134,_RNvMs_NtCsyULe2umut5_4pmix6fabricNtB4_10PmixFabric6unamed
FN:361,_RNvNtCsyULe2umut5_4pmix6fabric13fabric_update
FN:245,_RNvNtCsyULe2umut5_4pmix6fabric15fabric_register
FN:383,_RNvNtCsyULe2umut5_4pmix6fabric16fabric_update_nb
FN:429,_RNvNtCsyULe2umut5_4pmix6fabric17fabric_deregister
FN:453,_RNvNtCsyULe2umut5_4pmix6fabric20fabric_deregister_nb
FN:394,_RNvNvNtCsyULe2umut5_4pmix6fabric16fabric_update_nb16fabric_update_cb
FN:464,_RNvNvNtCsyULe2umut5_4pmix6fabric20fabric_deregister_nb20fabric_deregister_cb
FN:97,_RNvXNtCsyULe2umut5_4pmix6fabricNtB2_10PmixFabricNtNtCs27Vx93FoQ6z_4core3fmt5Debug3fmt
FN:811,_RNvXs7_NtCsyULe2umut5_4pmix6fabricNtB5_15DeviceDistancesNtNtCs27Vx93FoQ6z_4core3fmt5Debug3fmt
FN:657,_RNvXs4_NtCsyULe2umut5_4pmix6fabricNtB5_10PmixCpusetNtNtNtCs27Vx93FoQ6z_4core3ops4drop4Drop4drop
FN:819,_RNvXs8_NtCsyULe2umut5_4pmix6fabricNtB5_15DeviceDistancesNtNtNtCs27Vx93FoQ6z_4core3ops4drop4Drop4drop
FN:543,_RNCNvMs0_NtCsyULe2umut5_4pmix6fabricNtB7_12PmixTopology6source0B9_
FN:996,_RNCNvNtCsyULe2umut5_4pmix6fabric17compute_distances0B5_
FN:1066,_RNCNvNvNtCsyULe2umut5_4pmix6fabric20compute_distances_nb20compute_distances_cb0B7_
FN:552,_RNvMs0_NtCsyULe2umut5_4pmix6fabricNtB5_12PmixTopology10as_mut_ptr
FN:566,_RNvMs0_NtCsyULe2umut5_4pmix6fabricNtB5_12PmixTopology13sync_from_raw
FN:518,_RNvMs0_NtCsyULe2umut5_4pmix6fabricNtB5_12PmixTopology3new
FN:542,_RNvMs0_NtCsyULe2umut5_4pmix6fabricNtB5_12PmixTopology6source
FN:532,_RNvMs0_NtCsyULe2umut5_4pmix6fabricNtB5_12PmixTopology6unamed
FN:576,_RNvMs0_NtCsyULe2umut5_4pmix6fabricNtB5_12PmixTopology8test_new
FN:547,_RNvMs0_NtCsyULe2umut5_4pmix6fabricNtB5_12PmixTopology9is_loaded
FN:636,_RNvMs2_NtCsyULe2umut5_4pmix6fabricNtB5_10PmixCpuset8test_new
FN:725,_RNvMs5_NtCsyULe2umut5_4pmix6fabricNtB5_18PmixDeviceDistance8from_raw
FN:900,_RNvNtCsyULe2umut5_4pmix6fabric13load_topology
FN:950,_RNvNtCsyULe2umut5_4pmix6fabric17compute_distances
FN:290,_RNvNtCsyULe2umut5_4pmix6fabric18fabric_register_nb
FN:1029,_RNvNtCsyULe2umut5_4pmix6fabric20compute_distances_nb
FN:310,_RNvNvNtCsyULe2umut5_4pmix6fabric18fabric_register_nb18fabric_register_cb
FN:1049,_RNvNvNtCsyULe2umut5_4pmix6fabric20compute_distances_nb20compute_distances_cb
FN:1346,_RNvXNvNtNtCsyULe2umut5_4pmix6fabric5testss_30test_fabric_update_nb_compilesNtB2_4NbCbNtB6_14FabricCallback11on_complete
FN:1319,_RNvXNvNtNtCsyULe2umut5_4pmix6fabric5testss_32test_fabric_register_nb_compilesNtB2_4NbCbNtB6_14FabricCallback11on_complete
FN:1368,_RNvXNvNtNtCsyULe2umut5_4pmix6fabric5testss_34test_fabric_deregister_nb_compilesNtB2_4NbCbNtB6_14FabricCallback11on_complete
FN:582,_RNvXs1_NtCsyULe2umut5_4pmix6fabricNtB5_12PmixTopologyNtNtNtCs27Vx93FoQ6z_4core3ops4drop4Drop4drop
FN:651,_RNvXs3_NtCsyULe2umut5_4pmix6fabricNtB5_10PmixCpusetNtNtCs27Vx93FoQ6z_4core7default7Default7default
FN:147,_RNCNvMs_NtCsyULe2umut5_4pmix6fabricNtB6_10PmixFabric4name0B8_
FN:104,_RNCNvXNtCsyULe2umut5_4pmix6fabricNtB4_10PmixFabricNtNtCs27Vx93FoQ6z_4core3fmt5Debug3fmt0B6_
FNDA:1,_RNvNtNtCsyULe2umut5_4pmix6fabric5testss_17test_fabric_debug
FNDA:1,_RNvNtNtCsyULe2umut5_4pmix6fabric5testss_21test_fabric_lifecycle
FNDA:1,_RNvNtNtCsyULe2umut5_4pmix6fabric5testss_22test_fabric_new_unamed
FNDA:1,_RNvNtNtCsyULe2umut5_4pmix6fabric5testss_24test_fabric_new_nul_name
FNDA:1,_RNvNtNtCsyULe2umut5_4pmix6fabric5testss_25test_device_distance_uuid
FNDA:1,_RNvNtNtCsyULe2umut5_4pmix6fabric5testss_25test_fabric_new_none_name
FNDA:1,_RNvNtNtCsyULe2umut5_4pmix6fabric5testss_25test_fabric_new_with_name
FNDA:1,_RNvNtNtCsyULe2umut5_4pmix6fabric5testss_26test_fabric_register_named
FNDA:1,_RNvNtNtCsyULe2umut5_4pmix6fabric5testss_27test_device_distance_osname
FNDA:1,_RNvNtNtCsyULe2umut5_4pmix6fabric5testss_27test_device_distances_debug
FNDA:1,_RNvNtNtCsyULe2umut5_4pmix6fabric5testss_27test_device_distances_empty
FNDA:1,_RNvNtNtCsyULe2umut5_4pmix6fabric5testss_28test_device_distance_maxdist
FNDA:1,_RNvNtNtCsyULe2umut5_4pmix6fabric5testss_28test_device_distance_mindist
FNDA:1,_RNvNtNtCsyULe2umut5_4pmix6fabric5testss_28test_device_distances_single
FNDA:1,_RNvNtNtCsyULe2umut5_4pmix6fabric5testss_29test_fabric_double_deregister
FNDA:1,_RNvNtNtCsyULe2umut5_4pmix6fabric5testss_30test_device_distance_all_types
FNDA:1,_RNvNtNtCsyULe2umut5_4pmix6fabric5testss_30test_device_distances_multiple
FNDA:1,_RNvNtNtCsyULe2umut5_4pmix6fabric5testss_30test_fabric_update_nb_compiles
FNDA:1,_RNvNtNtCsyULe2umut5_4pmix6fabric5testss_32test_device_distance_device_type
FNDA:1,_RNvNtNtCsyULe2umut5_4pmix6fabric5testss_32test_fabric_register_nb_compiles
FNDA:1,_RNvNtNtCsyULe2umut5_4pmix6fabric5testss_33test_fabric_callback_trait_object
FNDA:1,_RNvNtNtCsyULe2umut5_4pmix6fabric5testss_33test_fabric_update_not_registered
FNDA:1,_RNvNtNtCsyULe2umut5_4pmix6fabric5testss_34test_device_distance_empty_strings
FNDA:1,_RNvNtNtCsyULe2umut5_4pmix6fabric5testss_34test_fabric_deregister_nb_compiles
FNDA:1,_RNvNtNtCsyULe2umut5_4pmix6fabric5testss_35test_device_distances_drop_null_raw
FNDA:1,_RNvNtNtCsyULe2umut5_4pmix6fabric5testss_35test_fabric_callback_records_status
FNDA:1,_RNvNtNtCsyULe2umut5_4pmix6fabric5testss_36test_fabric_update_nb_not_registered
FNDA:1,_RNvNtNtCsyULe2umut5_4pmix6fabric5testss_37test_fabric_deregister_not_registered
FNDA:1,_RNvNtNtCsyULe2umut5_4pmix6fabric5testss_37test_fabric_register_empty_directives
FNDA:1,_RNvNtNtCsyULe2umut5_4pmix6fabric5testss_40test_fabric_deregister_nb_not_registered
FNDA:0,_RNvXNvNtNtCsyULe2umut5_4pmix6fabric5testss_33test_fabric_callback_trait_objectNtB2_6TestCbNtB6_14FabricCallback11on_complete
FNDA:0,_RNvXNvNtNtCsyULe2umut5_4pmix6fabric5testss_35test_fabric_callback_records_statusNtB2_11RecordingCbNtB6_14FabricCallback11on_complete
FNDA:0,_RNvXNvNtNtCsyULe2umut5_4pmix6fabric5testss_36test_fabric_update_nb_not_registeredNtB2_4NbCbNtB6_14FabricCallback11on_complete
FNDA:0,_RNvXNvNtNtCsyULe2umut5_4pmix6fabric5testss_40test_fabric_deregister_nb_not_registeredNtB2_4NbCbNtB6_14FabricCallback11on_complete
FNDA:12,_RNvMs2_NtCsyULe2umut5_4pmix6fabricNtB5_10PmixCpuset10as_mut_ptr
FNDA:12,_RNvMs2_NtCsyULe2umut5_4pmix6fabricNtB5_10PmixCpuset3new
FNDA:5,_RNvMs5_NtCsyULe2umut5_4pmix6fabricNtB5_18PmixDeviceDistance11device_type
FNDA:6,_RNvMs5_NtCsyULe2umut5_4pmix6fabricNtB5_18PmixDeviceDistance4uuid
FNDA:2,_RNvMs5_NtCsyULe2umut5_4pmix6fabricNtB5_18PmixDeviceDistance6osname
FNDA:2,_RNvMs5_NtCsyULe2umut5_4pmix6fabricNtB5_18PmixDeviceDistance7maxdist
FNDA:2,_RNvMs5_NtCsyULe2umut5_4pmix6fabricNtB5_18PmixDeviceDistance7mindist
FNDA:16,_RNvMs5_NtCsyULe2umut5_4pmix6fabricNtB5_18PmixDeviceDistance8test_new
FNDA:3,_RNvMs6_NtCsyULe2umut5_4pmix6fabricNtB5_15DeviceDistances3len
FNDA:3,_RNvMs6_NtCsyULe2umut5_4pmix6fabricNtB5_15DeviceDistances8is_empty
FNDA:5,_RNvMs6_NtCsyULe2umut5_4pmix6fabricNtB5_15DeviceDistances8test_new
FNDA:6,_RNvMs6_NtCsyULe2umut5_4pmix6fabricNtB5_15DeviceDistances9distances
FNDA:4,_RNvMs_NtCsyULe2umut5_4pmix6fabricNtB4_10PmixFabric10as_mut_ptr
FNDA:5,_RNvMs_NtCsyULe2umut5_4pmix6fabricNtB4_10PmixFabric13is_registered
FNDA:0,_RNvMs_NtCsyULe2umut5_4pmix6fabricNtB4_10PmixFabric13sync_from_raw
FNDA:6,_RNvMs_NtCsyULe2umut5_4pmix6fabricNtB4_10PmixFabric3new
FNDA:3,_RNvMs_NtCsyULe2umut5_4pmix6fabricNtB4_10PmixFabric4name
FNDA:1,_RNvMs_NtCsyULe2umut5_4pmix6fabricNtB4_10PmixFabric5index
FNDA:1,_RNvMs_NtCsyULe2umut5_4pmix6fabricNtB4_10PmixFabric5ninfo
FNDA:7,_RNvMs_NtCsyULe2umut5_4pmix6fabricNtB4_10PmixFabric6unamed
FNDA:1,_RNvNtCsyULe2umut5_4pmix6fabric13fabric_update
FNDA:4,_RNvNtCsyULe2umut5_4pmix6fabric15fabric_register
FNDA:1,_RNvNtCsyULe2umut5_4pmix6fabric16fabric_update_nb
FNDA:1,_RNvNtCsyULe2umut5_4pmix6fabric17fabric_deregister
FNDA:1,_RNvNtCsyULe2umut5_4pmix6fabric20fabric_deregister_nb
FNDA:0,_RNvNvNtCsyULe2umut5_4pmix6fabric16fabric_update_nb16fabric_update_cb
FNDA:0,_RNvNvNtCsyULe2umut5_4pmix6fabric20fabric_deregister_nb20fabric_deregister_cb
FNDA:1,_RNvXNtCsyULe2umut5_4pmix6fabricNtB2_10PmixFabricNtNtCs27Vx93FoQ6z_4core3fmt5Debug3fmt
FNDA:1,_RNvXs7_NtCsyULe2umut5_4pmix6fabricNtB5_15DeviceDistancesNtNtCs27Vx93FoQ6z_4core3fmt5Debug3fmt
FNDA:12,_RNvXs4_NtCsyULe2umut5_4pmix6fabricNtB5_10PmixCpusetNtNtNtCs27Vx93FoQ6z_4core3ops4drop4Drop4drop
FNDA:5,_RNvXs8_NtCsyULe2umut5_4pmix6fabricNtB5_15DeviceDistancesNtNtNtCs27Vx93FoQ6z_4core3ops4drop4Drop4drop
FNDA:0,_RNCNvMs0_NtCsyULe2umut5_4pmix6fabricNtB7_12PmixTopology6source0B9_
FNDA:0,_RNCNvNtCsyULe2umut5_4pmix6fabric17compute_distances0B5_
FNDA:0,_RNCNvNvNtCsyULe2umut5_4pmix6fabric20compute_distances_nb20compute_distances_cb0B7_
FNDA:0,_RNvMs0_NtCsyULe2umut5_4pmix6fabricNtB5_12PmixTopology10as_mut_ptr
FNDA:0,_RNvMs0_NtCsyULe2umut5_4pmix6fabricNtB5_12PmixTopology13sync_from_raw
FNDA:0,_RNvMs0_NtCsyULe2umut5_4pmix6fabricNtB5_12PmixTopology3new
FNDA:0,_RNvMs0_NtCsyULe2umut5_4pmix6fabricNtB5_12PmixTopology6source
FNDA:0,_RNvMs0_NtCsyULe2umut5_4pmix6fabricNtB5_12PmixTopology6unamed
FNDA:0,_RNvMs0_NtCsyULe2umut5_4pmix6fabricNtB5_12PmixTopology8test_new
FNDA:0,_RNvMs0_NtCsyULe2umut5_4pmix6fabricNtB5_12PmixTopology9is_loaded
FNDA:0,_RNvMs2_NtCsyULe2umut5_4pmix6fabricNtB5_10PmixCpuset8test_new
FNDA:0,_RNvMs5_NtCsyULe2umut5_4pmix6fabricNtB5_18PmixDeviceDistance8from_raw
FNDA:0,_RNvNtCsyULe2umut5_4pmix6fabric13load_topology
FNDA:0,_RNvNtCsyULe2umut5_4pmix6fabric17compute_distances
FNDA:0,_RNvNtCsyULe2umut5_4pmix6fabric18fabric_register_nb
FNDA:0,_RNvNtCsyULe2umut5_4pmix6fabric20compute_distances_nb
FNDA:0,_RNvNvNtCsyULe2umut5_4pmix6fabric18fabric_register_nb18fabric_register_cb
FNDA:0,_RNvNvNtCsyULe2umut5_4pmix6fabric20compute_distances_nb20compute_distances_cb
FNDA:0,_RNvXNvNtNtCsyULe2umut5_4pmix6fabric5testss_30test_fabric_update_nb_compilesNtB2_4NbCbNtB6_14FabricCallback11on_complete
FNDA:0,_RNvXNvNtNtCsyULe2umut5_4pmix6fabric5testss_32test_fabric_register_nb_compilesNtB2_4NbCbNtB6_14FabricCallback11on_complete
FNDA:0,_RNvXNvNtNtCsyULe2umut5_4pmix6fabric5testss_34test_fabric_deregister_nb_compilesNtB2_4NbCbNtB6_14FabricCallback11on_complete
FNDA:0,_RNvXs1_NtCsyULe2umut5_4pmix6fabricNtB5_12PmixTopologyNtNtNtCs27Vx93FoQ6z_4core3ops4drop4Drop4drop
FNDA:0,_RNvXs3_NtCsyULe2umut5_4pmix6fabricNtB5_10PmixCpusetNtNtCs27Vx93FoQ6z_4core7default7Default7default
FNDA:1,_RNCNvMs_NtCsyULe2umut5_4pmix6fabricNtB6_10PmixFabric4name0B8_
FNDA:0,_RNCNvXNtCsyULe2umut5_4pmix6fabricNtB4_10PmixFabricNtNtCs27Vx93FoQ6z_4core3fmt5Debug3fmt0B6_
FNF:90
FNH:59
DA:97,1
DA:98,1
DA:99,1
DA:100,1
DA:101,1
DA:102,1
DA:103,1
DA:104,1
DA:106,1
DA:107,1
DA:108,1
DA:109,1
DA:110,1
DA:118,6
DA:119,6
DA:120,5
DA:121,1
DA:123,5
DA:124,5
DA:125,5
DA:126,5
DA:127,5
DA:128,5
DA:129,5
DA:130,5
DA:131,6
DA:134,7
DA:135,7
DA:136,7
DA:137,7
DA:138,7
DA:139,7
DA:140,7
DA:141,7
DA:142,7
DA:143,7
DA:146,3
DA:147,3
DA:148,3
DA:151,1
DA:152,1
DA:153,1
DA:156,5
DA:157,5
DA:158,5
DA:161,1
DA:162,1
DA:163,1
DA:169,4
DA:172,4
DA:173,4
DA:174,3
DA:175,1
DA:177,4
DA:180,4
DA:181,4
DA:182,4
DA:184,4
DA:188,0
DA:189,0
DA:190,0
DA:191,0
DA:192,0
DA:193,0
DA:194,0
DA:195,0
DA:196,0
DA:245,4
DA:246,4
DA:247,4
DA:249,0
DA:250,0
DA:251,0
DA:252,0
DA:253,0
DA:254,0
DA:255,0
DA:258,4
DA:259,4
DA:261,4
DA:262,4
DA:263,0
DA:264,0
DA:265,0
DA:267,4
DA:269,4
DA:290,0
DA:291,0
DA:292,0
DA:293,0
DA:294,0
DA:295,0
DA:296,0
DA:298,0
DA:299,0
DA:300,0
DA:301,0
DA:302,0
DA:303,0
DA:304,0
DA:307,0
DA:308,0
DA:310,0
DA:311,0
DA:312,0
DA:313,0
DA:314,0
DA:315,0
DA:316,0
DA:317,0
DA:318,0
DA:320,0
DA:321,0
DA:322,0
DA:323,0
DA:324,0
DA:325,0
DA:326,0
DA:327,0
DA:331,0
DA:332,0
DA:333,0
DA:334,0
DA:337,0
DA:338,0
DA:340,0
DA:361,1
DA:362,1
DA:363,1
DA:364,0
DA:366,0
DA:367,0
DA:369,0
DA:370,0
DA:371,0
DA:372,0
DA:374,0
DA:376,1
DA:383,1
DA:384,1
DA:385,1
DA:386,1
DA:387,1
DA:388,1
DA:389,0
DA:391,0
DA:392,0
DA:394,0
DA:395,0
DA:396,0
DA:397,0
DA:398,0
DA:399,0
DA:401,0
DA:402,0
DA:403,0
DA:405,0
DA:406,0
DA:407,0
DA:409,0
DA:410,0
DA:412,1
DA:429,1
DA:430,1
DA:431,1
DA:432,0
DA:434,0
DA:435,0
DA:437,0
DA:438,0
DA:439,0
DA:440,0
DA:441,0
DA:442,0
DA:444,0
DA:446,1
DA:453,1
DA:454,1
DA:455,1
DA:456,1
DA:457,1
DA:458,1
DA:459,0
DA:461,0
DA:462,0
DA:464,0
DA:465,0
DA:466,0
DA:467,0
DA:468,0
DA:469,0
DA:470,0
DA:471,0
DA:472,0
DA:474,0
DA:475,0
DA:476,0
DA:479,0
DA:480,0
DA:481,0
DA:482,0
DA:484,0
DA:485,0
DA:487,1
DA:518,0
DA:519,0
DA:520,0
DA:521,0
DA:523,0
DA:524,0
DA:525,0
DA:526,0
DA:527,0
DA:528,0
DA:529,0
DA:532,0
DA:533,0
DA:534,0
DA:535,0
DA:536,0
DA:537,0
DA:538,0
DA:539,0
DA:542,0
DA:543,0
DA:544,0
DA:547,0
DA:548,0
DA:549,0
DA:552,0
DA:554,0
DA:555,0
DA:556,0
DA:557,0
DA:559,0
DA:560,0
DA:562,0
DA:566,0
DA:567,0
DA:568,0
DA:569,0
DA:570,0
DA:576,0
DA:577,0
DA:578,0
DA:582,0
DA:583,0
DA:584,0
DA:585,0
DA:586,0
DA:587,0
DA:588,0
DA:589,0
DA:592,0
DA:619,12
DA:620,12
DA:621,12
DA:622,12
DA:623,12
DA:624,12
DA:626,12
DA:627,12
DA:628,12
DA:629,12
DA:636,0
DA:637,0
DA:638,0
DA:639,0
DA:640,0
DA:641,0
DA:644,12
DA:645,12
DA:646,12
DA:647,12
DA:651,0
DA:652,0
DA:653,0
DA:657,12
DA:658,12
DA:659,12
DA:660,12
DA:661,12
DA:662,12
DA:663,12
DA:664,12
DA:695,6
DA:696,6
DA:697,6
DA:700,2
DA:701,2
DA:702,2
DA:705,5
DA:706,5
DA:707,5
DA:710,2
DA:711,2
DA:712,2
DA:715,2
DA:716,2
DA:717,2
DA:725,0
DA:726,0
DA:727,0
DA:728,0
DA:730,0
DA:733,0
DA:734,0
DA:735,0
DA:737,0
DA:740,0
DA:741,0
DA:742,0
DA:743,0
DA:744,0
DA:745,0
DA:746,0
DA:747,0
DA:752,16
DA:753,16
DA:754,16
DA:755,16
DA:756,16
DA:757,16
DA:758,16
DA:759,16
DA:760,16
DA:761,16
DA:762,16
DA:763,16
DA:764,16
DA:765,16
DA:766,16
DA:783,6
DA:784,6
DA:785,6
DA:788,3
DA:789,3
DA:790,3
DA:793,3
DA:794,3
DA:795,3
DA:801,5
DA:802,5
DA:803,5
DA:804,5
DA:805,5
DA:806,5
DA:807,5
DA:811,1
DA:812,1
DA:813,1
DA:814,1
DA:815,1
DA:819,5
DA:820,5
DA:824,0
DA:825,0
DA:826,0
DA:827,0
DA:828,0
DA:829,0
DA:830,0
DA:831,0
DA:846,0
DA:847,0
DA:848,0
DA:850,0
DA:851,0
DA:853,0
DA:854,0
DA:855,5
DA:856,5
DA:900,0
DA:901,0
DA:902,0
DA:904,0
DA:905,0
DA:906,0
DA:907,0
DA:908,0
DA:910,0
DA:912,0
DA:950,0
DA:951,0
DA:952,0
DA:953,0
DA:954,0
DA:955,0
DA:956,0
DA:958,0
DA:959,0
DA:960,0
DA:961,0
DA:962,0
DA:963,0
DA:966,0
DA:967,0
DA:969,0
DA:970,0
DA:972,0
DA:973,0
DA:974,0
DA:975,0
DA:976,0
DA:977,0
DA:978,0
DA:979,0
DA:983,0
DA:984,0
DA:985,0
DA:986,0
DA:991,0
DA:992,0
DA:993,0
DA:995,0
DA:996,0
DA:997,0
DA:1001,0
DA:1002,0
DA:1003,0
DA:1004,0
DA:1005,0
DA:1006,0
DA:1029,0
DA:1030,0
DA:1031,0
DA:1032,0
DA:1033,0
DA:1034,0
DA:1035,0
DA:1036,0
DA:1038,0
DA:1039,0
DA:1040,0
DA:1041,0
DA:1042,0
DA:1043,0
DA:1046,0
DA:1047,0
DA:1049,0
DA:1050,0
DA:1051,0
DA:1052,0
DA:1053,0
DA:1054,0
DA:1055,0
DA:1056,0
DA:1057,0
DA:1058,0
DA:1059,0
DA:1062,0
DA:1064,0
DA:1065,0
DA:1066,0
DA:1067,0
DA:1069,0
DA:1070,0
DA:1071,0
DA:1072,0
DA:1073,0
DA:1075,0
DA:1076,0
DA:1077,0
DA:1078,0
DA:1079,0
DA:1083,0
DA:1084,0
DA:1085,0
DA:1087,0
DA:1088,0
DA:1090,0
DA:1091,0
DA:1093,0
DA:1094,0
DA:1095,0
DA:1096,0
DA:1097,0
DA:1098,0
DA:1099,0
DA:1100,0
DA:1104,0
DA:1105,0
DA:1106,0
DA:1109,0
DA:1110,0
DA:1112,0
DA:1126,1
DA:1127,1
DA:1128,1
DA:1129,1
DA:1130,1
DA:1131,1
DA:1132,1
DA:1136,1
DA:1137,1
DA:1138,1
DA:1139,1
DA:1140,1
DA:1144,1
DA:1145,1
DA:1146,1
DA:1147,1
DA:1148,1
DA:1152,1
DA:1153,1
DA:1154,1
DA:1155,1
DA:1159,1
DA:1160,1
DA:1161,1
DA:1162,1
DA:1163,1
DA:1169,1
DA:1170,1
DA:1171,1
DA:1172,1
DA:1173,1
DA:1174,1
DA:1176,1
DA:1179,1
DA:1183,1
DA:1184,1
DA:1185,1
DA:1186,1
DA:1187,1
DA:1188,1
DA:1190,1
DA:1193,1
DA:1198,1
DA:1201,0
DA:1203,1
DA:1204,1
DA:1208,1
DA:1215,0
DA:1216,0
DA:1217,0
DA:1220,1
DA:1221,1
DA:1222,1
DA:1223,1
DA:1226,1
DA:1229,1
DA:1230,1
DA:1239,1
DA:1240,1
DA:1241,1
DA:1244,1
DA:1245,0
DA:1246,1
DA:1247,1
DA:1252,1
DA:1253,1
DA:1254,1
DA:1255,1
DA:1256,0
DA:1257,0
DA:1258,1
DA:1259,1
DA:1266,1
DA:1267,1
DA:1268,1
DA:1271,1
DA:1272,1
DA:1274,1
DA:1275,0
DA:1276,0
DA:1279,0
DA:1280,0
DA:1281,0
DA:1282,0
DA:1285,0
DA:1286,0
DA:1287,0
DA:1288,0
DA:1289,1
DA:1294,1
DA:1295,1
DA:1296,1
DA:1297,1
DA:1298,1
DA:1299,0
DA:1300,0
DA:1301,0
DA:1303,0
DA:1304,0
DA:1305,1
DA:1316,1
DA:1319,0
DA:1323,1
DA:1324,1
DA:1325,1
DA:1326,1
DA:1327,1
DA:1328,0
DA:1330,1
DA:1331,1
DA:1334,0
DA:1338,1
DA:1343,1
DA:1346,0
DA:1348,1
DA:1349,1
DA:1350,1
DA:1351,1
DA:1352,1
DA:1353,0
DA:1355,1
DA:1356,1
DA:1359,0
DA:1360,1
DA:1365,1
DA:1368,0
DA:1370,1
DA:1371,1
DA:1372,1
DA:1373,1
DA:1374,1
DA:1375,0
DA:1377,1
DA:1378,1
DA:1381,0
DA:1382,1
DA:1387,1
DA:1390,0
DA:1392,1
DA:1393,1
DA:1394,1
DA:1396,1
DA:1399,1
DA:1402,0
DA:1404,1
DA:1405,1
DA:1406,1
DA:1407,1
DA:1413,1
DA:1414,1
DA:1415,1
DA:1416,1
DA:1420,1
DA:1421,1
DA:1422,1
DA:1423,1
DA:1427,1
DA:1428,1
DA:1429,1
DA:1430,1
DA:1434,1
DA:1435,1
DA:1436,1
DA:1437,1
DA:1441,1
DA:1442,1
DA:1443,1
DA:1444,1
DA:1448,1
DA:1449,1
DA:1450,1
DA:1451,1
DA:1452,1
DA:1453,1
DA:1454,1
DA:1455,1
DA:1459,1
DA:1460,1
DA:1461,1
DA:1462,1
DA:1463,1
DA:1464,1
DA:1465,1
DA:1466,1
DA:1472,1
DA:1473,1
DA:1474,1
DA:1475,1
DA:1476,1
DA:1477,1
DA:1481,1
DA:1482,1
DA:1483,1
DA:1484,1
DA:1485,1
DA:1486,1
DA:1487,1
DA:1488,1
DA:1492,1
DA:1493,1
DA:1494,1
DA:1495,1
DA:1496,1
DA:1498,1
DA:1499,1
DA:1500,1
DA:1501,1
DA:1502,1
DA:1503,1
DA:1504,1
DA:1508,1
DA:1509,1
DA:1510,1
DA:1511,1
DA:1512,1
DA:1513,1
DA:1514,1
DA:1518,1
DA:1520,1
DA:1521,1
DA:1522,1
DA:1524,1
DA:1525,1
BRF:0
BRH:0
LF:714
LH:357
end_of_record
SF:/home/bzf/projects/pmix-rs/src/ffi.rs
FN:81,_RNvNtNtCsyULe2umut5_4pmix3ffi5testss_19test_pmix_proc_size
FN:94,_RNvNtNtCsyULe2umut5_4pmix3ffi5testss_23test_pmix_info_t_fields
FN:68,_RNvNtNtCsyULe2umut5_4pmix3ffi5testss_23test_pmix_proc_t_layout
FN:55,_RNvNtNtCsyULe2umut5_4pmix3ffi5testss_24test_pmix_value_t_layout
FN:36,_RNvNtNtCsyULe2umut5_4pmix3ffi5testss_28test_pmix_data_types_present
FN:46,_RNvNtNtCsyULe2umut5_4pmix3ffi5testss_33test_pmix_scope_constants_present
FN:25,_RNvNtNtCsyULe2umut5_4pmix3ffi5testss_34test_pmix_status_constants_present
FNDA:1,_RNvNtNtCsyULe2umut5_4pmix3ffi5testss_19test_pmix_proc_size
FNDA:1,_RNvNtNtCsyULe2umut5_4pmix3ffi5testss_23test_pmix_info_t_fields
FNDA:1,_RNvNtNtCsyULe2umut5_4pmix3ffi5testss_23test_pmix_proc_t_layout
FNDA:1,_RNvNtNtCsyULe2umut5_4pmix3ffi5testss_24test_pmix_value_t_layout
FNDA:1,_RNvNtNtCsyULe2umut5_4pmix3ffi5testss_28test_pmix_data_types_present
FNDA:1,_RNvNtNtCsyULe2umut5_4pmix3ffi5testss_33test_pmix_scope_constants_present
FNDA:1,_RNvNtNtCsyULe2umut5_4pmix3ffi5testss_34test_pmix_status_constants_present
FNF:7
FNH:7
DA:25,1
DA:28,1
DA:29,1
DA:30,1
DA:31,1
DA:32,1
DA:36,1
DA:38,1
DA:39,1
DA:40,1
DA:41,1
DA:42,1
DA:46,1
DA:48,1
DA:49,1
DA:50,1
DA:51,1
DA:55,1
DA:57,1
DA:58,1
DA:60,1
DA:61,1
DA:64,1
DA:68,1
DA:70,1
DA:71,1
DA:73,1
DA:74,1
DA:77,1
DA:81,1
DA:85,1
DA:90,1
DA:94,1
DA:96,1
DA:97,1
DA:98,1
DA:99,1
DA:102,1
BRF:0
BRH:0
LF:38
LH:38
end_of_record
SF:/home/bzf/projects/pmix-rs/src/groups.rs
FN:880,_RNCNvNtNtCsyULe2umut5_4pmix6groups5testss_32test_group_join_callback_wrapper0B7_
FN:886,_RNCNvNtNtCsyULe2umut5_4pmix6groups5testss_33test_group_leave_callback_wrapper0B7_
FN:874,_RNCNvNtNtCsyULe2umut5_4pmix6groups5testss_34test_group_invite_callback_wrapper0B7_
FN:892,_RNCNvNtNtCsyULe2umut5_4pmix6groups5testss_36test_group_destruct_callback_wrapper0B7_
FN:868,_RNCNvNtNtCsyULe2umut5_4pmix6groups5testss_37test_group_construct_callback_wrapper0B7_
FN:879,_RNvNtNtCsyULe2umut5_4pmix6groups5testss_32test_group_join_callback_wrapper
FN:885,_RNvNtNtCsyULe2umut5_4pmix6groups5testss_33test_group_leave_callback_wrapper
FN:873,_RNvNtNtCsyULe2umut5_4pmix6groups5testss_34test_group_invite_callback_wrapper
FN:891,_RNvNtNtCsyULe2umut5_4pmix6groups5testss_36test_group_destruct_callback_wrapper
FN:866,_RNvNtNtCsyULe2umut5_4pmix6groups5testss_37test_group_construct_callback_wrapper
FN:125,_RINvMNtCsyULe2umut5_4pmix6groupsNtB3_29GroupConstructCallbackWrapper3newNCNvNtB3_5testss_37test_group_construct_callback_wrapper0EB5_
FN:530,_RINvMs0_NtCsyULe2umut5_4pmix6groupsNtB6_24GroupJoinCallbackWrapper3newNCNvNtB6_5testss_32test_group_join_callback_wrapper0EB8_
FN:680,_RINvMs1_NtCsyULe2umut5_4pmix6groupsNtB6_25GroupLeaveCallbackWrapper3newNCNvNtB6_5testss_33test_group_leave_callback_wrapper0EB8_
FN:795,_RINvMs2_NtCsyULe2umut5_4pmix6groupsNtB6_28GroupDestructCallbackWrapper3newNCNvNtB6_5testss_36test_group_destruct_callback_wrapper0EB8_
FN:329,_RINvMs_NtCsyULe2umut5_4pmix6groupsNtB5_26GroupInviteCallbackWrapper3newNCNvNtB5_5testss_34test_group_invite_callback_wrapper0EB7_
FN:452,_RNvNtCsyULe2umut5_4pmix6groups10group_join
FN:642,_RNvNtCsyULe2umut5_4pmix6groups11group_leave
FN:247,_RNvNtCsyULe2umut5_4pmix6groups12group_invite
FN:550,_RNvNtCsyULe2umut5_4pmix6groups13group_join_nb
FN:757,_RNvNtCsyULe2umut5_4pmix6groups14group_destruct
FN:698,_RNvNtCsyULe2umut5_4pmix6groups14group_leave_nb
FN:42,_RNvNtCsyULe2umut5_4pmix6groups15group_construct
FN:348,_RNvNtCsyULe2umut5_4pmix6groups15group_invite_nb
FN:813,_RNvNtCsyULe2umut5_4pmix6groups17group_destruct_nb
FN:148,_RNvNtCsyULe2umut5_4pmix6groups18group_construct_nb
FN:564,_RNvNvNtCsyULe2umut5_4pmix6groups13group_join_nb26group_join_callback_bridge
FN:710,_RNvNvNtCsyULe2umut5_4pmix6groups14group_leave_nb27group_leave_callback_bridge
FN:364,_RNvNvNtCsyULe2umut5_4pmix6groups15group_invite_nb28group_invite_callback_bridge
FN:825,_RNvNvNtCsyULe2umut5_4pmix6groups17group_destruct_nb30group_destruct_callback_bridge
FN:165,_RNvNvNtCsyULe2umut5_4pmix6groups18group_construct_nb31group_construct_callback_bridge
FNDA:0,_RNCNvNtNtCsyULe2umut5_4pmix6groups5testss_32test_group_join_callback_wrapper0B7_
FNDA:0,_RNCNvNtNtCsyULe2umut5_4pmix6groups5testss_33test_group_leave_callback_wrapper0B7_
FNDA:0,_RNCNvNtNtCsyULe2umut5_4pmix6groups5testss_34test_group_invite_callback_wrapper0B7_
FNDA:0,_RNCNvNtNtCsyULe2umut5_4pmix6groups5testss_36test_group_destruct_callback_wrapper0B7_
FNDA:0,_RNCNvNtNtCsyULe2umut5_4pmix6groups5testss_37test_group_construct_callback_wrapper0B7_
FNDA:1,_RNvNtNtCsyULe2umut5_4pmix6groups5testss_32test_group_join_callback_wrapper
FNDA:1,_RNvNtNtCsyULe2umut5_4pmix6groups5testss_33test_group_leave_callback_wrapper
FNDA:1,_RNvNtNtCsyULe2umut5_4pmix6groups5testss_34test_group_invite_callback_wrapper
FNDA:1,_RNvNtNtCsyULe2umut5_4pmix6groups5testss_36test_group_destruct_callback_wrapper
FNDA:1,_RNvNtNtCsyULe2umut5_4pmix6groups5testss_37test_group_construct_callback_wrapper
FNDA:1,_RINvMNtCsyULe2umut5_4pmix6groupsNtB3_29GroupConstructCallbackWrapper3newNCNvNtB3_5testss_37test_group_construct_callback_wrapper0EB5_
FNDA:1,_RINvMs0_NtCsyULe2umut5_4pmix6groupsNtB6_24GroupJoinCallbackWrapper3newNCNvNtB6_5testss_32test_group_join_callback_wrapper0EB8_
FNDA:1,_RINvMs1_NtCsyULe2umut5_4pmix6groupsNtB6_25GroupLeaveCallbackWrapper3newNCNvNtB6_5testss_33test_group_leave_callback_wrapper0EB8_
FNDA:1,_RINvMs2_NtCsyULe2umut5_4pmix6groupsNtB6_28GroupDestructCallbackWrapper3newNCNvNtB6_5testss_36test_group_destruct_callback_wrapper0EB8_
FNDA:1,_RINvMs_NtCsyULe2umut5_4pmix6groupsNtB5_26GroupInviteCallbackWrapper3newNCNvNtB5_5testss_34test_group_invite_callback_wrapper0EB7_
FNDA:0,_RNvNtCsyULe2umut5_4pmix6groups10group_join
FNDA:0,_RNvNtCsyULe2umut5_4pmix6groups11group_leave
FNDA:0,_RNvNtCsyULe2umut5_4pmix6groups12group_invite
FNDA:0,_RNvNtCsyULe2umut5_4pmix6groups13group_join_nb
FNDA:0,_RNvNtCsyULe2umut5_4pmix6groups14group_destruct
FNDA:0,_RNvNtCsyULe2umut5_4pmix6groups14group_leave_nb
FNDA:0,_RNvNtCsyULe2umut5_4pmix6groups15group_construct
FNDA:0,_RNvNtCsyULe2umut5_4pmix6groups15group_invite_nb
FNDA:0,_RNvNtCsyULe2umut5_4pmix6groups17group_destruct_nb
FNDA:0,_RNvNtCsyULe2umut5_4pmix6groups18group_construct_nb
FNDA:0,_RNvNvNtCsyULe2umut5_4pmix6groups13group_join_nb26group_join_callback_bridge
FNDA:0,_RNvNvNtCsyULe2umut5_4pmix6groups14group_leave_nb27group_leave_callback_bridge
FNDA:0,_RNvNvNtCsyULe2umut5_4pmix6groups15group_invite_nb28group_invite_callback_bridge
FNDA:0,_RNvNvNtCsyULe2umut5_4pmix6groups17group_destruct_nb30group_destruct_callback_bridge
FNDA:0,_RNvNvNtCsyULe2umut5_4pmix6groups18group_construct_nb31group_construct_callback_bridge
FNF:30
FNH:10
DA:42,0
DA:43,0
DA:44,0
DA:45,0
DA:46,0
DA:47,0
DA:48,0
DA:49,0
DA:50,0
DA:51,0
DA:52,0
DA:54,0
DA:56,0
DA:57,0
DA:60,0
DA:61,0
DA:63,0
DA:64,0
DA:65,0
DA:66,0
DA:67,0
DA:68,0
DA:69,0
DA:72,0
DA:73,0
DA:75,0
DA:76,0
DA:77,0
DA:78,0
DA:79,0
DA:80,0
DA:81,0
DA:82,0
DA:83,0
DA:87,0
DA:88,0
DA:89,0
DA:90,0
DA:92,0
DA:93,0
DA:94,0
DA:96,0
DA:97,0
DA:98,0
DA:99,0
DA:100,0
DA:101,0
DA:102,0
DA:103,0
DA:105,0
DA:106,0
DA:107,0
DA:108,0
DA:112,0
DA:113,0
DA:125,1
DA:126,1
DA:127,1
DA:129,1
DA:130,1
DA:131,1
DA:132,1
DA:148,0
DA:149,0
DA:150,0
DA:151,0
DA:152,0
DA:153,0
DA:154,0
DA:155,0
DA:156,0
DA:157,0
DA:158,0
DA:159,0
DA:161,0
DA:163,0
DA:165,0
DA:166,0
DA:167,0
DA:168,0
DA:169,0
DA:170,0
DA:171,0
DA:172,0
DA:173,0
DA:174,0
DA:176,0
DA:178,0
DA:179,0
DA:181,0
DA:182,0
DA:183,0
DA:184,0
DA:185,0
DA:186,0
DA:187,0
DA:188,0
DA:192,0
DA:195,0
DA:196,0
DA:198,0
DA:199,0
DA:202,0
DA:203,0
DA:205,0
DA:206,0
DA:207,0
DA:208,0
DA:209,0
DA:210,0
DA:213,0
DA:214,0
DA:215,0
DA:216,0
DA:217,0
DA:218,0
DA:219,0
DA:220,0
DA:221,0
DA:225,0
DA:226,0
DA:227,0
DA:229,0
DA:230,0
DA:232,0
DA:247,0
DA:248,0
DA:249,0
DA:250,0
DA:251,0
DA:252,0
DA:253,0
DA:254,0
DA:255,0
DA:256,0
DA:257,0
DA:259,0
DA:261,0
DA:262,0
DA:265,0
DA:266,0
DA:268,0
DA:269,0
DA:270,0
DA:271,0
DA:272,0
DA:273,0
DA:276,0
DA:277,0
DA:279,0
DA:280,0
DA:281,0
DA:282,0
DA:283,0
DA:284,0
DA:285,0
DA:286,0
DA:287,0
DA:291,0
DA:292,0
DA:293,0
DA:294,0
DA:296,0
DA:297,0
DA:298,0
DA:300,0
DA:301,0
DA:302,0
DA:303,0
DA:304,0
DA:305,0
DA:306,0
DA:307,0
DA:309,0
DA:310,0
DA:311,0
DA:312,0
DA:316,0
DA:317,0
DA:329,1
DA:330,1
DA:331,1
DA:333,1
DA:334,1
DA:335,1
DA:336,1
DA:348,0
DA:349,0
DA:350,0
DA:351,0
DA:352,0
DA:353,0
DA:354,0
DA:355,0
DA:356,0
DA:357,0
DA:358,0
DA:359,0
DA:361,0
DA:362,0
DA:364,0
DA:365,0
DA:366,0
DA:367,0
DA:368,0
DA:369,0
DA:370,0
DA:371,0
DA:372,0
DA:373,0
DA:375,0
DA:377,0
DA:378,0
DA:380,0
DA:381,0
DA:382,0
DA:383,0
DA:384,0
DA:385,0
DA:386,0
DA:387,0
DA:391,0
DA:394,0
DA:395,0
DA:397,0
DA:398,0
DA:401,0
DA:402,0
DA:404,0
DA:405,0
DA:406,0
DA:407,0
DA:408,0
DA:409,0
DA:412,0
DA:413,0
DA:414,0
DA:415,0
DA:416,0
DA:417,0
DA:418,0
DA:419,0
DA:420,0
DA:424,0
DA:425,0
DA:426,0
DA:428,0
DA:429,0
DA:431,0
DA:452,0
DA:453,0
DA:454,0
DA:455,0
DA:456,0
DA:457,0
DA:458,0
DA:459,0
DA:460,0
DA:462,0
DA:464,0
DA:466,0
DA:467,0
DA:469,0
DA:470,0
DA:471,0
DA:472,0
DA:473,0
DA:474,0
DA:477,0
DA:478,0
DA:480,0
DA:481,0
DA:482,0
DA:483,0
DA:484,0
DA:485,0
DA:486,0
DA:487,0
DA:488,0
DA:492,0
DA:493,0
DA:494,0
DA:495,0
DA:497,0
DA:498,0
DA:499,0
DA:501,0
DA:502,0
DA:503,0
DA:504,0
DA:505,0
DA:506,0
DA:507,0
DA:508,0
DA:510,0
DA:511,0
DA:512,0
DA:513,0
DA:517,0
DA:518,0
DA:530,1
DA:531,1
DA:532,1
DA:534,1
DA:535,1
DA:536,1
DA:537,1
DA:550,0
DA:551,0
DA:552,0
DA:553,0
DA:554,0
DA:555,0
DA:556,0
DA:557,0
DA:558,0
DA:559,0
DA:561,0
DA:562,0
DA:564,0
DA:565,0
DA:566,0
DA:567,0
DA:568,0
DA:569,0
DA:570,0
DA:571,0
DA:572,0
DA:573,0
DA:575,0
DA:577,0
DA:578,0
DA:580,0
DA:581,0
DA:582,0
DA:583,0
DA:584,0
DA:585,0
DA:586,0
DA:587,0
DA:591,0
DA:594,0
DA:595,0
DA:597,0
DA:599,0
DA:600,0
DA:602,0
DA:603,0
DA:604,0
DA:605,0
DA:606,0
DA:607,0
DA:610,0
DA:611,0
DA:612,0
DA:613,0
DA:614,0
DA:615,0
DA:616,0
DA:617,0
DA:618,0
DA:622,0
DA:623,0
DA:624,0
DA:626,0
DA:627,0
DA:629,0
DA:642,0
DA:643,0
DA:644,0
DA:645,0
DA:647,0
DA:649,0
DA:650,0
DA:652,0
DA:653,0
DA:654,0
DA:655,0
DA:656,0
DA:657,0
DA:660,0
DA:662,0
DA:663,0
DA:664,0
DA:666,0
DA:668,0
DA:680,1
DA:681,1
DA:682,1
DA:684,1
DA:685,1
DA:686,1
DA:687,1
DA:698,0
DA:699,0
DA:700,0
DA:701,0
DA:702,0
DA:703,0
DA:704,0
DA:705,0
DA:707,0
DA:708,0
DA:710,0
DA:711,0
DA:712,0
DA:713,0
DA:714,0
DA:716,0
DA:717,0
DA:719,0
DA:720,0
DA:721,0
DA:722,0
DA:723,0
DA:724,0
DA:727,0
DA:728,0
DA:729,0
DA:730,0
DA:731,0
DA:732,0
DA:733,0
DA:737,0
DA:738,0
DA:739,0
DA:741,0
DA:742,0
DA:744,0
DA:757,0
DA:758,0
DA:759,0
DA:760,0
DA:762,0
DA:764,0
DA:765,0
DA:767,0
DA:768,0
DA:769,0
DA:770,0
DA:771,0
DA:772,0
DA:775,0
DA:777,0
DA:778,0
DA:779,0
DA:781,0
DA:783,0
DA:795,1
DA:796,1
DA:797,1
DA:799,1
DA:800,1
DA:801,1
DA:802,1
DA:813,0
DA:814,0
DA:815,0
DA:816,0
DA:817,0
DA:818,0
DA:819,0
DA:820,0
DA:822,0
DA:823,0
DA:825,0
DA:826,0
DA:827,0
DA:828,0
DA:829,0
DA:831,0
DA:832,0
DA:834,0
DA:835,0
DA:836,0
DA:837,0
DA:838,0
DA:839,0
DA:842,0
DA:843,0
DA:844,0
DA:845,0
DA:846,0
DA:847,0
DA:848,0
DA:852,0
DA:853,0
DA:854,0
DA:856,0
DA:857,0
DA:859,0
DA:866,1
DA:867,1
DA:868,1
DA:869,1
DA:870,1
DA:873,1
DA:874,1
DA:875,1
DA:876,1
DA:879,1
DA:880,1
DA:881,1
DA:882,1
DA:885,1
DA:886,1
DA:887,1
DA:888,1
DA:891,1
DA:892,1
DA:893,1
DA:894,1
BRF:0
BRH:0
LF:517
LH:56
end_of_record
SF:/home/bzf/projects/pmix-rs/src/info.rs
FN:15,_RNvNtNtCsyULe2umut5_4pmix4info5testss_23test_info_module_exists
FN:23,_RNvNtNtCsyULe2umut5_4pmix4info5testss_26test_info_module_is_public
FNDA:1,_RNvNtNtCsyULe2umut5_4pmix4info5testss_23test_info_module_exists
FNDA:1,_RNvNtNtCsyULe2umut5_4pmix4info5testss_26test_info_module_is_public
FNF:2
FNH:2
DA:15,1
DA:18,1
DA:19,1
DA:23,1
DA:27,1
DA:28,1
BRF:0
BRH:0
LF:6
LH:6
end_of_record
SF:/home/bzf/projects/pmix-rs/src/lib.rs
FN:2751,_RNvCsyULe2umut5_4pmix10free_value
FN:3149,_RNvCsyULe2umut5_4pmix11get_version
FN:3028,_RNvCsyULe2umut5_4pmix4init
FN:3162,_RNvCsyULe2umut5_4pmix8finalize
FN:414,_RNvMCsyULe2umut5_4pmixNtB2_10PmixStatus10is_success
FN:427,_RNvMCsyULe2umut5_4pmixNtB2_10PmixStatus5known
FN:406,_RNvMCsyULe2umut5_4pmixNtB2_10PmixStatus6to_raw
FN:398,_RNvMCsyULe2umut5_4pmixNtB2_10PmixStatus8from_raw
FN:569,_RNvMs2_CsyULe2umut5_4pmixNtB5_9PmixError10is_successB5_
FN:461,_RNvMs2_CsyULe2umut5_4pmixNtB5_9PmixError8from_raw
FN:861,_RNvMs3_CsyULe2umut5_4pmixNtB5_13PmixProcState13is_terminated
FN:815,_RNvMs3_CsyULe2umut5_4pmixNtB5_13PmixProcState6to_raw
FN:785,_RNvMs3_CsyULe2umut5_4pmixNtB5_13PmixProcState8from_raw
FN:846,_RNvMs3_CsyULe2umut5_4pmixNtB5_13PmixProcState8is_alive
FN:966,_RNvMs5_CsyULe2umut5_4pmixNtB5_9PmixScope6to_raw
FN:954,_RNvMs5_CsyULe2umut5_4pmixNtB5_9PmixScope8from_raw
FN:1075,_RNvMs7_CsyULe2umut5_4pmixNtB5_12PmixJobState6to_raw
FN:1059,_RNvMs7_CsyULe2umut5_4pmixNtB5_12PmixJobState8from_raw
FN:1161,_RNvMs9_CsyULe2umut5_4pmixNtB5_13PmixLinkState6to_raw
FN:1151,_RNvMs9_CsyULe2umut5_4pmixNtB5_13PmixLinkState8from_raw
FN:1256,_RNvMsb_CsyULe2umut5_4pmixNtB5_14PmixDeviceType6to_raw
FN:1242,_RNvMsb_CsyULe2umut5_4pmixNtB5_14PmixDeviceType8from_raw
FN:1437,_RNvMsf_CsyULe2umut5_4pmixNtB5_13PmixDataRange6to_raw
FN:1421,_RNvMsf_CsyULe2umut5_4pmixNtB5_13PmixDataRange8from_raw
FN:2017,_RNvMsl_CsyULe2umut5_4pmixNtB5_15IOFChannelFlags3raw
FN:2013,_RNvMsl_CsyULe2umut5_4pmixNtB5_15IOFChannelFlags8contains
FN:2009,_RNvMsl_CsyULe2umut5_4pmixNtB5_15IOFChannelFlags8is_empty
FN:2193,_RNvMsx_CsyULe2umut5_4pmixNtB5_4Proc3new
FN:2257,_RNvMsy_CsyULe2umut5_4pmixNtB5_9InfoFlags3raw
FN:2253,_RNvMsy_CsyULe2umut5_4pmixNtB5_9InfoFlags8contains
FN:2250,_RNvMsy_CsyULe2umut5_4pmixNtB5_9InfoFlags8is_empty
FN:447,_RNvXs1_CsyULe2umut5_4pmixNtB5_10PmixStatusINtNtCs27Vx93FoQ6z_4core7convert4FromNtB5_9PmixErrorE4from
FN:979,_RNvXs6_CsyULe2umut5_4pmixNtB5_9PmixScopeNtNtCs27Vx93FoQ6z_4core3fmt7Display3fmt
FN:1092,_RNvXs8_CsyULe2umut5_4pmixNtB5_12PmixJobStateNtNtCs27Vx93FoQ6z_4core3fmt7Display3fmt
FN:1172,_RNvXsa_CsyULe2umut5_4pmixNtB5_13PmixLinkStateNtNtCs27Vx93FoQ6z_4core3fmt7Display3fmt
FN:1271,_RNvXsc_CsyULe2umut5_4pmixNtB5_14PmixDeviceTypeNtNtCs27Vx93FoQ6z_4core3fmt7Display3fmt
FN:1454,_RNvXsg_CsyULe2umut5_4pmixNtB5_13PmixDataRangeNtNtCs27Vx93FoQ6z_4core3fmt7Display3fmt
FN:2024,_RNvXsm_CsyULe2umut5_4pmixNtB5_15IOFChannelFlagsNtNtNtCs27Vx93FoQ6z_4core3ops3bit5BitOr5bitor
FN:2030,_RNvXsn_CsyULe2umut5_4pmixNtB5_15IOFChannelFlagsNtNtNtCs27Vx93FoQ6z_4core3ops3bit11BitOrAssign12bitor_assign
FN:2036,_RNvXso_CsyULe2umut5_4pmixNtB5_15IOFChannelFlagsNtNtCs27Vx93FoQ6z_4core3fmt7Display3fmt
FN:2264,_RNvXsz_CsyULe2umut5_4pmixNtB5_9InfoFlagsNtNtNtCs27Vx93FoQ6z_4core3ops3bit5BitOr5bitor
FN:3179,_RNvNtCsyULe2umut5_4pmix5testss_16test_get_version
FN:2879,_RNvXsE_CsyULe2umut5_4pmixNtB5_14PmixOwnedValueNtNtNtCs27Vx93FoQ6z_4core3ops4drop4Drop4drop
FN:3023,_RNvXsI_CsyULe2umut5_4pmixNtB5_7ContextNtNtNtCs27Vx93FoQ6z_4core3ops4drop4Drop4drop
FN:2589,_RNCNvMsC_CsyULe2umut5_4pmixNtB7_16PmixValueBuilder12string_array0B7_
FN:2599,_RNCNvMsC_CsyULe2umut5_4pmixNtB7_16PmixValueBuilder12string_arrays_0B7_
FN:2640,_RNvCsyULe2umut5_4pmix13write_payload
FN:2971,_RNvCsyULe2umut5_4pmix20info_with_string_key
FN:3129,_RNvCsyULe2umut5_4pmix5fence
FN:3117,_RNvCsyULe2umut5_4pmix6commit
FN:3156,_RNvCsyULe2umut5_4pmix8progress
FN:3057,_RNvCsyULe2umut5_4pmix9get_value
FN:3101,_RNvCsyULe2umut5_4pmix9put_value
FN:422,_RNvMCsyULe2umut5_4pmixNtB2_10PmixStatus8is_error
FN:582,_RNvMs2_CsyULe2umut5_4pmixNtB5_9PmixError4name
FN:560,_RNvMs2_CsyULe2umut5_4pmixNtB5_9PmixError6to_rawB5_
FN:575,_RNvMs2_CsyULe2umut5_4pmixNtB5_9PmixError8is_errorB5_
FN:2338,_RNvMsB_CsyULe2umut5_4pmixNtB5_11PmixPayload8type_tag
FN:2542,_RNvMsC_CsyULe2umut5_4pmixNtB5_16PmixValueBuilder10data_array
FN:2481,_RNvMsC_CsyULe2umut5_4pmixNtB5_16PmixValueBuilder10data_range
FN:2484,_RNvMsC_CsyULe2umut5_4pmixNtB5_16PmixValueBuilder10proc_state
FN:2514,_RNvMsC_CsyULe2umut5_4pmixNtB5_16PmixValueBuilder11byte_object
FN:2490,_RNvMsC_CsyULe2umut5_4pmixNtB5_16PmixValueBuilder11iof_channel
FN:2581,_RNvMsC_CsyULe2umut5_4pmixNtB5_16PmixValueBuilder12string_array
FN:2487,_RNvMsC_CsyULe2umut5_4pmixNtB5_16PmixValueBuilder15alloc_directive
FN:2493,_RNvMsC_CsyULe2umut5_4pmixNtB5_16PmixValueBuilder15info_directives
FN:2430,_RNvMsC_CsyULe2umut5_4pmixNtB5_16PmixValueBuilder3int
FN:2401,_RNvMsC_CsyULe2umut5_4pmixNtB5_16PmixValueBuilder3new
FN:2427,_RNvMsC_CsyULe2umut5_4pmixNtB5_16PmixValueBuilder3pid
FN:2418,_RNvMsC_CsyULe2umut5_4pmixNtB5_16PmixValueBuilder4bool
FN:2421,_RNvMsC_CsyULe2umut5_4pmixNtB5_16PmixValueBuilder4byte
FN:2433,_RNvMsC_CsyULe2umut5_4pmixNtB5_16PmixValueBuilder4int8
FN:2472,_RNvMsC_CsyULe2umut5_4pmixNtB5_16PmixValueBuilder4rank
FN:2424,_RNvMsC_CsyULe2umut5_4pmixNtB5_16PmixValueBuilder4size
FN:2445,_RNvMsC_CsyULe2umut5_4pmixNtB5_16PmixValueBuilder4uint
FN:2610,_RNvMsC_CsyULe2umut5_4pmixNtB5_16PmixValueBuilder5build
FN:2522,_RNvMsC_CsyULe2umut5_4pmixNtB5_16PmixValueBuilder5envar
FN:2460,_RNvMsC_CsyULe2umut5_4pmixNtB5_16PmixValueBuilder5float
FN:2436,_RNvMsC_CsyULe2umut5_4pmixNtB5_16PmixValueBuilder5int16
FN:2439,_RNvMsC_CsyULe2umut5_4pmixNtB5_16PmixValueBuilder5int32
FN:2442,_RNvMsC_CsyULe2umut5_4pmixNtB5_16PmixValueBuilder5int64
FN:2507,_RNvMsC_CsyULe2umut5_4pmixNtB5_16PmixValueBuilder5proc_
FN:2478,_RNvMsC_CsyULe2umut5_4pmixNtB5_16PmixValueBuilder5scope
FN:2448,_RNvMsC_CsyULe2umut5_4pmixNtB5_16PmixValueBuilder5uint8
FN:2415,_RNvMsC_CsyULe2umut5_4pmixNtB5_16PmixValueBuilder5undef
FN:2463,_RNvMsC_CsyULe2umut5_4pmixNtB5_16PmixValueBuilder6double
FN:2469,_RNvMsC_CsyULe2umut5_4pmixNtB5_16PmixValueBuilder6status
FN:2502,_RNvMsC_CsyULe2umut5_4pmixNtB5_16PmixValueBuilder6string
FN:2451,_RNvMsC_CsyULe2umut5_4pmixNtB5_16PmixValueBuilder6uint16
FN:2454,_RNvMsC_CsyULe2umut5_4pmixNtB5_16PmixValueBuilder6uint32
FN:2457,_RNvMsC_CsyULe2umut5_4pmixNtB5_16PmixValueBuilder6uint64
FN:2408,_RNvMsC_CsyULe2umut5_4pmixNtB5_16PmixValueBuilder7payload
FN:2475,_RNvMsC_CsyULe2umut5_4pmixNtB5_16PmixValueBuilder7persist
FN:2531,_RNvMsC_CsyULe2umut5_4pmixNtB5_16PmixValueBuilder7pointer
FN:2466,_RNvMsC_CsyULe2umut5_4pmixNtB5_16PmixValueBuilder7timeval
FN:2621,_RNvMsC_CsyULe2umut5_4pmixNtB5_16PmixValueBuilder9build_raw
FN:2832,_RNvMsD_CsyULe2umut5_4pmixNtB5_14PmixOwnedValue10as_raw_mut
FN:2869,_RNvMsD_CsyULe2umut5_4pmixNtB5_14PmixOwnedValue10bytes_copy
FN:2854,_RNvMsD_CsyULe2umut5_4pmixNtB5_14PmixOwnedValue4size
FN:2849,_RNvMsD_CsyULe2umut5_4pmixNtB5_14PmixOwnedValue5bytes
FN:2827,_RNvMsD_CsyULe2umut5_4pmixNtB5_14PmixOwnedValue6as_raw
FN:2859,_RNvMsD_CsyULe2umut5_4pmixNtB5_14PmixOwnedValue6uint32
FN:2864,_RNvMsD_CsyULe2umut5_4pmixNtB5_14PmixOwnedValue6uint64
FN:2843,_RNvMsD_CsyULe2umut5_4pmixNtB5_14PmixOwnedValue8into_raw
FN:2837,_RNvMsD_CsyULe2umut5_4pmixNtB5_14PmixOwnedValue8type_tag
FN:2932,_RNvMsG_CsyULe2umut5_4pmixNtB5_11InfoBuilder12collect_data
FN:2919,_RNvMsG_CsyULe2umut5_4pmixNtB5_11InfoBuilder3add
FN:2915,_RNvMsG_CsyULe2umut5_4pmixNtB5_11InfoBuilder3new
FN:2941,_RNvMsG_CsyULe2umut5_4pmixNtB5_11InfoBuilder5build
FN:3001,_RNvMsH_CsyULe2umut5_4pmixNtB5_7Context16proc_with_nspace
FN:3017,_RNvMsH_CsyULe2umut5_4pmixNtB5_7Context8get_proc
FN:3014,_RNvMsH_CsyULe2umut5_4pmixNtB5_7Context8get_rank
FN:1337,_RNvMsd_CsyULe2umut5_4pmixNtB5_15PmixPersistence6to_raw
FN:1324,_RNvMsd_CsyULe2umut5_4pmixNtB5_15PmixPersistence8from_raw
FN:1771,_RNvMsh_CsyULe2umut5_4pmixNtB5_12PmixDataType6to_raw
FN:1697,_RNvMsh_CsyULe2umut5_4pmixNtB5_12PmixDataType8from_raw
FN:1958,_RNvMsj_CsyULe2umut5_4pmixNtB5_18PmixAllocDirective6to_raw
FN:1950,_RNvMsj_CsyULe2umut5_4pmixNtB5_18PmixAllocDirective8from_raw
FN:2183,_RNvMsw_CsyULe2umut5_4pmixNtB5_9PmixEnvar3new
FN:2207,_RNvMsx_CsyULe2umut5_4pmixNtB5_4Proc15new_with_nspace
FN:2221,_RNvMsx_CsyULe2umut5_4pmixNtB5_4Proc8get_rank
FN:2225,_RNvMsx_CsyULe2umut5_4pmixNtB5_4Proc8set_rank
FN:882,_RNvXs4_CsyULe2umut5_4pmixNtB5_13PmixProcStateNtNtCs27Vx93FoQ6z_4core3fmt7Display3fmt
FN:2269,_RNvXsA_CsyULe2umut5_4pmixNtB5_9InfoFlagsNtNtNtCs27Vx93FoQ6z_4core3ops3bit11BitOrAssign12bitor_assign
FN:2885,_RNvXsF_CsyULe2umut5_4pmixNtB5_14PmixOwnedValueNtNtCs27Vx93FoQ6z_4core3fmt5Debug3fmt
FN:436,_RNvXs_CsyULe2umut5_4pmixNtB4_10PmixStatusNtNtCs27Vx93FoQ6z_4core3fmt7Display3fmt
FN:1351,_RNvXse_CsyULe2umut5_4pmixNtB5_15PmixPersistenceNtNtCs27Vx93FoQ6z_4core3fmt7Display3fmt
FN:1846,_RNvXsi_CsyULe2umut5_4pmixNtB5_12PmixDataTypeNtNtCs27Vx93FoQ6z_4core3fmt7Display3fmt
FN:1967,_RNvXsk_CsyULe2umut5_4pmixNtB5_18PmixAllocDirectiveNtNtCs27Vx93FoQ6z_4core3fmt7Display3fmt
FN:2077,_RNvXsp_CsyULe2umut5_4pmixNtB5_12BuilderErrorNtNtCs27Vx93FoQ6z_4core3fmt7Display3fmt
FN:2090,_RNvXsq_CsyULe2umut5_4pmixNtB5_12BuilderErrorNtNtCs27Vx93FoQ6z_4core5error5Error6source
FN:2099,_RNvXsr_CsyULe2umut5_4pmixNtB5_12BuilderErrorINtNtCs27Vx93FoQ6z_4core7convert4FromNtNtNtCsgW8esjfipvk_5alloc3ffi5c_str8NulErrorE4from
FN:2121,_RNvXss_CsyULe2umut5_4pmixNtB5_10ValueErrorNtNtCs27Vx93FoQ6z_4core3fmt7Display3fmt
FN:2131,_RNvXst_CsyULe2umut5_4pmixNtB5_10ValueErrorNtNtCs27Vx93FoQ6z_4core5error5Error6source
FN:2140,_RNvXsu_CsyULe2umut5_4pmixNtB5_10ValueErrorINtNtCs27Vx93FoQ6z_4core7convert4FromNtNtNtCsgW8esjfipvk_5alloc3ffi5c_str8NulErrorE4from
FN:2157,_RNvXsv_CsyULe2umut5_4pmixNtNtB5_3ffi7timevalINtNtCs27Vx93FoQ6z_4core7convert4FromNtB5_11PmixTimevalE4from
FNDA:0,_RNvCsyULe2umut5_4pmix10free_value
FNDA:1,_RNvCsyULe2umut5_4pmix11get_version
FNDA:3,_RNvCsyULe2umut5_4pmix4init
FNDA:0,_RNvCsyULe2umut5_4pmix8finalize
FNDA:34,_RNvMCsyULe2umut5_4pmixNtB2_10PmixStatus10is_success
FNDA:3,_RNvMCsyULe2umut5_4pmixNtB2_10PmixStatus5known
FNDA:16,_RNvMCsyULe2umut5_4pmixNtB2_10PmixStatus6to_raw
FNDA:57,_RNvMCsyULe2umut5_4pmixNtB2_10PmixStatus8from_raw
FNDA:34,_RNvMs2_CsyULe2umut5_4pmixNtB5_9PmixError10is_successB5_
FNDA:57,_RNvMs2_CsyULe2umut5_4pmixNtB5_9PmixError8from_raw
FNDA:4,_RNvMs3_CsyULe2umut5_4pmixNtB5_13PmixProcState13is_terminated
FNDA:51,_RNvMs3_CsyULe2umut5_4pmixNtB5_13PmixProcState6to_raw
FNDA:23,_RNvMs3_CsyULe2umut5_4pmixNtB5_13PmixProcState8from_raw
FNDA:5,_RNvMs3_CsyULe2umut5_4pmixNtB5_13PmixProcState8is_alive
FNDA:24,_RNvMs5_CsyULe2umut5_4pmixNtB5_9PmixScope6to_raw
FNDA:11,_RNvMs5_CsyULe2umut5_4pmixNtB5_9PmixScope8from_raw
FNDA:33,_RNvMs7_CsyULe2umut5_4pmixNtB5_12PmixJobState6to_raw
FNDA:10,_RNvMs7_CsyULe2umut5_4pmixNtB5_12PmixJobState8from_raw
FNDA:17,_RNvMs9_CsyULe2umut5_4pmixNtB5_13PmixLinkState6to_raw
FNDA:5,_RNvMs9_CsyULe2umut5_4pmixNtB5_13PmixLinkState8from_raw
FNDA:32,_RNvMsb_CsyULe2umut5_4pmixNtB5_14PmixDeviceType6to_raw
FNDA:9,_RNvMsb_CsyULe2umut5_4pmixNtB5_14PmixDeviceType8from_raw
FNDA:38,_RNvMsf_CsyULe2umut5_4pmixNtB5_13PmixDataRange6to_raw
FNDA:19,_RNvMsf_CsyULe2umut5_4pmixNtB5_13PmixDataRange8from_raw
FNDA:22,_RNvMsl_CsyULe2umut5_4pmixNtB5_15IOFChannelFlags3raw
FNDA:25,_RNvMsl_CsyULe2umut5_4pmixNtB5_15IOFChannelFlags8contains
FNDA:5,_RNvMsl_CsyULe2umut5_4pmixNtB5_15IOFChannelFlags8is_empty
FNDA:2,_RNvMsx_CsyULe2umut5_4pmixNtB5_4Proc3new
FNDA:13,_RNvMsy_CsyULe2umut5_4pmixNtB5_9InfoFlags3raw
FNDA:3,_RNvMsy_CsyULe2umut5_4pmixNtB5_9InfoFlags8contains
FNDA:4,_RNvMsy_CsyULe2umut5_4pmixNtB5_9InfoFlags8is_empty
FNDA:1,_RNvXs1_CsyULe2umut5_4pmixNtB5_10PmixStatusINtNtCs27Vx93FoQ6z_4core7convert4FromNtB5_9PmixErrorE4from
FNDA:6,_RNvXs6_CsyULe2umut5_4pmixNtB5_9PmixScopeNtNtCs27Vx93FoQ6z_4core3fmt7Display3fmt
FNDA:10,_RNvXs8_CsyULe2umut5_4pmixNtB5_12PmixJobStateNtNtCs27Vx93FoQ6z_4core3fmt7Display3fmt
FNDA:3,_RNvXsa_CsyULe2umut5_4pmixNtB5_13PmixLinkStateNtNtCs27Vx93FoQ6z_4core3fmt7Display3fmt
FNDA:7,_RNvXsc_CsyULe2umut5_4pmixNtB5_14PmixDeviceTypeNtNtCs27Vx93FoQ6z_4core3fmt7Display3fmt
FNDA:10,_RNvXsg_CsyULe2umut5_4pmixNtB5_13PmixDataRangeNtNtCs27Vx93FoQ6z_4core3fmt7Display3fmt
FNDA:4,_RNvXsm_CsyULe2umut5_4pmixNtB5_15IOFChannelFlagsNtNtNtCs27Vx93FoQ6z_4core3ops3bit5BitOr5bitor
FNDA:2,_RNvXsn_CsyULe2umut5_4pmixNtB5_15IOFChannelFlagsNtNtNtCs27Vx93FoQ6z_4core3ops3bit11BitOrAssign12bitor_assign
FNDA:4,_RNvXso_CsyULe2umut5_4pmixNtB5_15IOFChannelFlagsNtNtCs27Vx93FoQ6z_4core3fmt7Display3fmt
FNDA:5,_RNvXsz_CsyULe2umut5_4pmixNtB5_9InfoFlagsNtNtNtCs27Vx93FoQ6z_4core3ops3bit5BitOr5bitor
FNDA:1,_RNvNtCsyULe2umut5_4pmix5testss_16test_get_version
FNDA:0,_RNvXsE_CsyULe2umut5_4pmixNtB5_14PmixOwnedValueNtNtNtCs27Vx93FoQ6z_4core3ops4drop4Drop4drop
FNDA:0,_RNvXsI_CsyULe2umut5_4pmixNtB5_7ContextNtNtNtCs27Vx93FoQ6z_4core3ops4drop4Drop4drop
FNDA:0,_RNCNvMsC_CsyULe2umut5_4pmixNtB7_16PmixValueBuilder12string_array0B7_
FNDA:0,_RNCNvMsC_CsyULe2umut5_4pmixNtB7_16PmixValueBuilder12string_arrays_0B7_
FNDA:0,_RNvCsyULe2umut5_4pmix13write_payload
FNDA:0,_RNvCsyULe2umut5_4pmix20info_with_string_key
FNDA:0,_RNvCsyULe2umut5_4pmix5fence
FNDA:0,_RNvCsyULe2umut5_4pmix6commit
FNDA:0,_RNvCsyULe2umut5_4pmix8progress
FNDA:0,_RNvCsyULe2umut5_4pmix9get_value
FNDA:0,_RNvCsyULe2umut5_4pmix9put_value
FNDA:0,_RNvMCsyULe2umut5_4pmixNtB2_10PmixStatus8is_error
FNDA:0,_RNvMs2_CsyULe2umut5_4pmixNtB5_9PmixError4name
FNDA:0,_RNvMs2_CsyULe2umut5_4pmixNtB5_9PmixError6to_rawB5_
FNDA:0,_RNvMs2_CsyULe2umut5_4pmixNtB5_9PmixError8is_errorB5_
FNDA:0,_RNvMsB_CsyULe2umut5_4pmixNtB5_11PmixPayload8type_tag
FNDA:0,_RNvMsC_CsyULe2umut5_4pmixNtB5_16PmixValueBuilder10data_array
FNDA:0,_RNvMsC_CsyULe2umut5_4pmixNtB5_16PmixValueBuilder10data_range
FNDA:0,_RNvMsC_CsyULe2umut5_4pmixNtB5_16PmixValueBuilder10proc_state
FNDA:0,_RNvMsC_CsyULe2umut5_4pmixNtB5_16PmixValueBuilder11byte_object
FNDA:0,_RNvMsC_CsyULe2umut5_4pmixNtB5_16PmixValueBuilder11iof_channel
FNDA:0,_RNvMsC_CsyULe2umut5_4pmixNtB5_16PmixValueBuilder12string_array
FNDA:0,_RNvMsC_CsyULe2umut5_4pmixNtB5_16PmixValueBuilder15alloc_directive
FNDA:0,_RNvMsC_CsyULe2umut5_4pmixNtB5_16PmixValueBuilder15info_directives
FNDA:0,_RNvMsC_CsyULe2umut5_4pmixNtB5_16PmixValueBuilder3int
FNDA:0,_RNvMsC_CsyULe2umut5_4pmixNtB5_16PmixValueBuilder3new
FNDA:0,_RNvMsC_CsyULe2umut5_4pmixNtB5_16PmixValueBuilder3pid
FNDA:0,_RNvMsC_CsyULe2umut5_4pmixNtB5_16PmixValueBuilder4bool
FNDA:0,_RNvMsC_CsyULe2umut5_4pmixNtB5_16PmixValueBuilder4byte
FNDA:0,_RNvMsC_CsyULe2umut5_4pmixNtB5_16PmixValueBuilder4int8
FNDA:0,_RNvMsC_CsyULe2umut5_4pmixNtB5_16PmixValueBuilder4rank
FNDA:0,_RNvMsC_CsyULe2umut5_4pmixNtB5_16PmixValueBuilder4size
FNDA:0,_RNvMsC_CsyULe2umut5_4pmixNtB5_16PmixValueBuilder4uint
FNDA:0,_RNvMsC_CsyULe2umut5_4pmixNtB5_16PmixValueBuilder5build
FNDA:0,_RNvMsC_CsyULe2umut5_4pmixNtB5_16PmixValueBuilder5envar
FNDA:0,_RNvMsC_CsyULe2umut5_4pmixNtB5_16PmixValueBuilder5float
FNDA:0,_RNvMsC_CsyULe2umut5_4pmixNtB5_16PmixValueBuilder5int16
FNDA:0,_RNvMsC_CsyULe2umut5_4pmixNtB5_16PmixValueBuilder5int32
FNDA:0,_RNvMsC_CsyULe2umut5_4pmixNtB5_16PmixValueBuilder5int64
FNDA:0,_RNvMsC_CsyULe2umut5_4pmixNtB5_16PmixValueBuilder5proc_
FNDA:0,_RNvMsC_CsyULe2umut5_4pmixNtB5_16PmixValueBuilder5scope
FNDA:0,_RNvMsC_CsyULe2umut5_4pmixNtB5_16PmixValueBuilder5uint8
FNDA:0,_RNvMsC_CsyULe2umut5_4pmixNtB5_16PmixValueBuilder5undef
FNDA:0,_RNvMsC_CsyULe2umut5_4pmixNtB5_16PmixValueBuilder6double
FNDA:0,_RNvMsC_CsyULe2umut5_4pmixNtB5_16PmixValueBuilder6status
FNDA:0,_RNvMsC_CsyULe2umut5_4pmixNtB5_16PmixValueBuilder6string
FNDA:0,_RNvMsC_CsyULe2umut5_4pmixNtB5_16PmixValueBuilder6uint16
FNDA:0,_RNvMsC_CsyULe2umut5_4pmixNtB5_16PmixValueBuilder6uint32
FNDA:0,_RNvMsC_CsyULe2umut5_4pmixNtB5_16PmixValueBuilder6uint64
FNDA:0,_RNvMsC_CsyULe2umut5_4pmixNtB5_16PmixValueBuilder7payload
FNDA:0,_RNvMsC_CsyULe2umut5_4pmixNtB5_16PmixValueBuilder7persist
FNDA:0,_RNvMsC_CsyULe2umut5_4pmixNtB5_16PmixValueBuilder7pointer
FNDA:0,_RNvMsC_CsyULe2umut5_4pmixNtB5_16PmixValueBuilder7timeval
FNDA:0,_RNvMsC_CsyULe2umut5_4pmixNtB5_16PmixValueBuilder9build_raw
FNDA:0,_RNvMsD_CsyULe2umut5_4pmixNtB5_14PmixOwnedValue10as_raw_mut
FNDA:0,_RNvMsD_CsyULe2umut5_4pmixNtB5_14PmixOwnedValue10bytes_copy
FNDA:0,_RNvMsD_CsyULe2umut5_4pmixNtB5_14PmixOwnedValue4size
FNDA:0,_RNvMsD_CsyULe2umut5_4pmixNtB5_14PmixOwnedValue5bytes
FNDA:0,_RNvMsD_CsyULe2umut5_4pmixNtB5_14PmixOwnedValue6as_raw
FNDA:0,_RNvMsD_CsyULe2umut5_4pmixNtB5_14PmixOwnedValue6uint32
FNDA:0,_RNvMsD_CsyULe2umut5_4pmixNtB5_14PmixOwnedValue6uint64
FNDA:0,_RNvMsD_CsyULe2umut5_4pmixNtB5_14PmixOwnedValue8into_raw
FNDA:0,_RNvMsD_CsyULe2umut5_4pmixNtB5_14PmixOwnedValue8type_tag
FNDA:0,_RNvMsG_CsyULe2umut5_4pmixNtB5_11InfoBuilder12collect_data
FNDA:0,_RNvMsG_CsyULe2umut5_4pmixNtB5_11InfoBuilder3add
FNDA:0,_RNvMsG_CsyULe2umut5_4pmixNtB5_11InfoBuilder3new
FNDA:0,_RNvMsG_CsyULe2umut5_4pmixNtB5_11InfoBuilder5build
FNDA:0,_RNvMsH_CsyULe2umut5_4pmixNtB5_7Context16proc_with_nspace
FNDA:0,_RNvMsH_CsyULe2umut5_4pmixNtB5_7Context8get_proc
FNDA:0,_RNvMsH_CsyULe2umut5_4pmixNtB5_7Context8get_rank
FNDA:0,_RNvMsd_CsyULe2umut5_4pmixNtB5_15PmixPersistence6to_raw
FNDA:0,_RNvMsd_CsyULe2umut5_4pmixNtB5_15PmixPersistence8from_raw
FNDA:0,_RNvMsh_CsyULe2umut5_4pmixNtB5_12PmixDataType6to_raw
FNDA:0,_RNvMsh_CsyULe2umut5_4pmixNtB5_12PmixDataType8from_raw
FNDA:0,_RNvMsj_CsyULe2umut5_4pmixNtB5_18PmixAllocDirective6to_raw
FNDA:0,_RNvMsj_CsyULe2umut5_4pmixNtB5_18PmixAllocDirective8from_raw
FNDA:0,_RNvMsw_CsyULe2umut5_4pmixNtB5_9PmixEnvar3new
FNDA:0,_RNvMsx_CsyULe2umut5_4pmixNtB5_4Proc15new_with_nspace
FNDA:0,_RNvMsx_CsyULe2umut5_4pmixNtB5_4Proc8get_rank
FNDA:0,_RNvMsx_CsyULe2umut5_4pmixNtB5_4Proc8set_rank
FNDA:0,_RNvXs4_CsyULe2umut5_4pmixNtB5_13PmixProcStateNtNtCs27Vx93FoQ6z_4core3fmt7Display3fmt
FNDA:0,_RNvXsA_CsyULe2umut5_4pmixNtB5_9InfoFlagsNtNtNtCs27Vx93FoQ6z_4core3ops3bit11BitOrAssign12bitor_assign
FNDA:0,_RNvXsF_CsyULe2umut5_4pmixNtB5_14PmixOwnedValueNtNtCs27Vx93FoQ6z_4core3fmt5Debug3fmt
FNDA:0,_RNvXs_CsyULe2umut5_4pmixNtB4_10PmixStatusNtNtCs27Vx93FoQ6z_4core3fmt7Display3fmt
FNDA:0,_RNvXse_CsyULe2umut5_4pmixNtB5_15PmixPersistenceNtNtCs27Vx93FoQ6z_4core3fmt7Display3fmt
FNDA:0,_RNvXsi_CsyULe2umut5_4pmixNtB5_12PmixDataTypeNtNtCs27Vx93FoQ6z_4core3fmt7Display3fmt
FNDA:0,_RNvXsk_CsyULe2umut5_4pmixNtB5_18PmixAllocDirectiveNtNtCs27Vx93FoQ6z_4core3fmt7Display3fmt
FNDA:0,_RNvXsp_CsyULe2umut5_4pmixNtB5_12BuilderErrorNtNtCs27Vx93FoQ6z_4core3fmt7Display3fmt
FNDA:0,_RNvXsq_CsyULe2umut5_4pmixNtB5_12BuilderErrorNtNtCs27Vx93FoQ6z_4core5error5Error6source
FNDA:0,_RNvXsr_CsyULe2umut5_4pmixNtB5_12BuilderErrorINtNtCs27Vx93FoQ6z_4core7convert4FromNtNtNtCsgW8esjfipvk_5alloc3ffi5c_str8NulErrorE4from
FNDA:0,_RNvXss_CsyULe2umut5_4pmixNtB5_10ValueErrorNtNtCs27Vx93FoQ6z_4core3fmt7Display3fmt
FNDA:0,_RNvXst_CsyULe2umut5_4pmixNtB5_10ValueErrorNtNtCs27Vx93FoQ6z_4core5error5Error6source
FNDA:0,_RNvXsu_CsyULe2umut5_4pmixNtB5_10ValueErrorINtNtCs27Vx93FoQ6z_4core7convert4FromNtNtNtCsgW8esjfipvk_5alloc3ffi5c_str8NulErrorE4from
FNDA:0,_RNvXsv_CsyULe2umut5_4pmixNtNtB5_3ffi7timevalINtNtCs27Vx93FoQ6z_4core7convert4FromNtB5_11PmixTimevalE4from
FNF:136
FNH:40
DA:398,57
DA:399,57
DA:400,55
DA:401,2
DA:403,57
DA:406,16
DA:407,16
DA:408,14
DA:409,2
DA:411,16
DA:414,34
DA:415,34
DA:416,34
DA:417,0
DA:419,34
DA:422,0
DA:423,0
DA:424,0
DA:427,3
DA:428,3
DA:429,3
DA:430,0
DA:432,3
DA:436,0
DA:437,0
DA:438,0
DA:439,0
DA:441,0
DA:447,1
DA:448,1
DA:449,1
DA:461,57
DA:465,57
DA:467,4
DA:468,6
DA:469,0
DA:470,0
DA:471,0
DA:472,0
DA:473,0
DA:474,0
DA:475,0
DA:476,0
DA:477,0
DA:478,0
DA:479,0
DA:480,0
DA:481,0
DA:482,0
DA:483,2
DA:484,1
DA:485,10
DA:486,0
DA:487,0
DA:488,32
DA:489,0
DA:490,0
DA:491,0
DA:492,0
DA:493,0
DA:494,0
DA:495,0
DA:496,0
DA:497,0
DA:498,0
DA:499,0
DA:500,0
DA:501,0
DA:502,0
DA:503,0
DA:504,0
DA:505,0
DA:506,0
DA:507,0
DA:508,0
DA:509,0
DA:510,0
DA:511,0
DA:512,0
DA:513,0
DA:514,0
DA:515,0
DA:516,0
DA:517,0
DA:518,0
DA:519,0
DA:520,0
DA:521,0
DA:522,0
DA:523,0
DA:524,0
DA:525,0
DA:526,0
DA:527,0
DA:528,0
DA:529,0
DA:530,0
DA:531,0
DA:532,0
DA:533,0
DA:534,0
DA:535,0
DA:536,0
DA:537,0
DA:538,0
DA:539,0
DA:540,0
DA:541,0
DA:542,0
DA:543,0
DA:544,0
DA:545,0
DA:546,0
DA:547,0
DA:548,0
DA:549,0
DA:550,0
DA:551,0
DA:552,0
DA:553,0
DA:554,2
DA:556,57
DA:560,0
DA:561,0
DA:562,0
DA:569,34
DA:570,34
DA:571,34
DA:575,0
DA:576,0
DA:577,0
DA:582,0
DA:583,0
DA:584,0
DA:585,0
DA:586,0
DA:587,0
DA:588,0
DA:589,0
DA:590,0
DA:591,0
DA:592,0
DA:593,0
DA:594,0
DA:595,0
DA:596,0
DA:597,0
DA:598,0
DA:599,0
DA:600,0
DA:601,0
DA:602,0
DA:603,0
DA:604,0
DA:605,0
DA:606,0
DA:607,0
DA:608,0
DA:609,0
DA:610,0
DA:611,0
DA:612,0
DA:613,0
DA:614,0
DA:615,0
DA:616,0
DA:617,0
DA:618,0
DA:619,0
DA:620,0
DA:621,0
DA:622,0
DA:623,0
DA:624,0
DA:625,0
DA:626,0
DA:627,0
DA:628,0
DA:629,0
DA:630,0
DA:631,0
DA:632,0
DA:633,0
DA:634,0
DA:635,0
DA:636,0
DA:637,0
DA:638,0
DA:639,0
DA:640,0
DA:641,0
DA:642,0
DA:643,0
DA:644,0
DA:645,0
DA:646,0
DA:647,0
DA:648,0
DA:649,0
DA:650,0
DA:651,0
DA:652,0
DA:653,0
DA:654,0
DA:655,0
DA:656,0
DA:657,0
DA:658,0
DA:659,0
DA:660,0
DA:661,0
DA:662,0
DA:663,0
DA:664,0
DA:665,0
DA:666,0
DA:667,0
DA:668,0
DA:669,0
DA:670,0
DA:672,0
DA:785,23
DA:786,23
DA:787,1
DA:788,1
DA:789,1
DA:790,1
DA:791,1
DA:792,1
DA:793,1
DA:794,1
DA:795,1
DA:796,1
DA:797,1
DA:798,1
DA:799,1
DA:800,1
DA:801,1
DA:802,1
DA:803,1
DA:804,1
DA:805,1
DA:806,1
DA:807,1
DA:808,1
DA:809,1
DA:810,0
DA:812,23
DA:815,51
DA:816,51
DA:817,1
DA:818,2
DA:819,2
DA:820,2
DA:821,1
DA:822,1
DA:823,4
DA:824,2
DA:825,1
DA:826,5
DA:827,3
DA:828,2
DA:829,3
DA:830,2
DA:831,2
DA:832,2
DA:833,2
DA:834,2
DA:835,2
DA:836,2
DA:837,2
DA:838,2
DA:839,2
DA:840,2
DA:842,51
DA:846,5
DA:847,2
DA:848,5
DA:857,5
DA:861,4
DA:862,1
DA:863,4
DA:878,4
DA:882,0
DA:883,0
DA:884,0
DA:885,0
DA:886,0
DA:887,0
DA:888,0
DA:889,0
DA:890,0
DA:891,0
DA:892,0
DA:893,0
DA:894,0
DA:895,0
DA:896,0
DA:897,0
DA:898,0
DA:899,0
DA:900,0
DA:901,0
DA:902,0
DA:903,0
DA:904,0
DA:905,0
DA:906,0
DA:907,0
DA:909,0
DA:954,11
DA:955,11
DA:956,2
DA:957,2
DA:958,2
DA:959,2
DA:960,2
DA:961,1
DA:963,11
DA:966,24
DA:967,24
DA:968,2
DA:969,3
DA:970,5
DA:971,4
DA:972,7
DA:973,3
DA:975,24
DA:979,6
DA:980,6
DA:981,1
DA:982,1
DA:983,1
DA:984,1
DA:985,1
DA:986,1
DA:988,6
DA:1059,10
DA:1060,10
DA:1061,1
DA:1062,1
DA:1063,1
DA:1064,1
DA:1065,1
DA:1066,1
DA:1067,1
DA:1068,1
DA:1069,1
DA:1070,1
DA:1072,10
DA:1075,33
DA:1076,33
DA:1077,0
DA:1078,4
DA:1079,3
DA:1080,3
DA:1081,6
DA:1082,3
DA:1083,3
DA:1084,3
DA:1085,4
DA:1086,4
DA:1088,33
DA:1092,10
DA:1093,10
DA:1094,1
DA:1095,1
DA:1096,1
DA:1097,1
DA:1098,1
DA:1099,1
DA:1100,1
DA:1101,1
DA:1102,1
DA:1103,1
DA:1105,10
DA:1151,5
DA:1152,5
DA:1153,1
DA:1154,1
DA:1155,1
DA:1156,2
DA:1158,5
DA:1161,17
DA:1162,17
DA:1163,1
DA:1164,4
DA:1165,6
DA:1166,6
DA:1168,17
DA:1172,3
DA:1173,3
DA:1174,1
DA:1175,1
DA:1176,1
DA:1177,0
DA:1179,3
DA:1242,9
DA:1243,9
DA:1244,1
DA:1245,1
DA:1246,1
DA:1247,1
DA:1248,1
DA:1249,1
DA:1250,1
DA:1251,2
DA:1253,9
DA:1256,32
DA:1257,32
DA:1258,2
DA:1259,4
DA:1260,4
DA:1261,6
DA:1262,4
DA:1263,4
DA:1264,4
DA:1265,4
DA:1267,32
DA:1271,7
DA:1272,7
DA:1273,1
DA:1274,1
DA:1275,1
DA:1276,1
DA:1277,1
DA:1278,1
DA:1279,1
DA:1280,0
DA:1282,7
DA:1324,0
DA:1325,0
DA:1326,0
DA:1327,0
DA:1328,0
DA:1329,0
DA:1330,0
DA:1331,0
DA:1332,0
DA:1334,0
DA:1337,0
DA:1338,0
DA:1339,0
DA:1340,0
DA:1341,0
DA:1342,0
DA:1343,0
DA:1344,0
DA:1345,0
DA:1347,0
DA:1351,0
DA:1352,0
DA:1353,0
DA:1354,0
DA:1355,0
DA:1356,0
DA:1357,0
DA:1360,0
DA:1361,0
DA:1364,0
DA:1365,0
DA:1367,0
DA:1421,19
DA:1422,19
DA:1423,2
DA:1424,2
DA:1425,2
DA:1426,2
DA:1427,2
DA:1428,2
DA:1429,2
DA:1430,2
DA:1431,2
DA:1432,1
DA:1434,19
DA:1437,38
DA:1438,38
DA:1439,2
DA:1440,3
DA:1441,3
DA:1442,5
DA:1443,4
DA:1444,6
DA:1445,5
DA:1446,3
DA:1447,3
DA:1448,4
DA:1450,38
DA:1454,10
DA:1455,10
DA:1456,1
DA:1457,1
DA:1458,1
DA:1459,1
DA:1460,1
DA:1461,1
DA:1462,1
DA:1463,1
DA:1464,1
DA:1465,1
DA:1467,10
DA:1697,0
DA:1698,0
DA:1699,0
DA:1700,0
DA:1701,0
DA:1702,0
DA:1703,0
DA:1704,0
DA:1705,0
DA:1706,0
DA:1707,0
DA:1708,0
DA:1709,0
DA:1710,0
DA:1711,0
DA:1712,0
DA:1713,0
DA:1714,0
DA:1715,0
DA:1716,0
DA:1717,0
DA:1718,0
DA:1719,0
DA:1720,0
DA:1721,0
DA:1722,0
DA:1723,0
DA:1724,0
DA:1725,0
DA:1726,0
DA:1727,0
DA:1728,0
DA:1729,0
DA:1730,0
DA:1731,0
DA:1732,0
DA:1733,0
DA:1734,0
DA:1735,0
DA:1736,0
DA:1737,0
DA:1738,0
DA:1739,0
DA:1740,0
DA:1741,0
DA:1742,0
DA:1743,0
DA:1744,0
DA:1745,0
DA:1746,0
DA:1747,0
DA:1748,0
DA:1749,0
DA:1750,0
DA:1751,0
DA:1752,0
DA:1753,0
DA:1754,0
DA:1755,0
DA:1756,0
DA:1757,0
DA:1758,0
DA:1759,0
DA:1760,0
DA:1761,0
DA:1762,0
DA:1763,0
DA:1764,0
DA:1765,0
DA:1766,0
DA:1768,0
DA:1771,0
DA:1772,0
DA:1773,0
DA:1774,0
DA:1775,0
DA:1776,0
DA:1777,0
DA:1778,0
DA:1779,0
DA:1780,0
DA:1781,0
DA:1782,0
DA:1783,0
DA:1784,0
DA:1785,0
DA:1786,0
DA:1787,0
DA:1788,0
DA:1789,0
DA:1790,0
DA:1791,0
DA:1792,0
DA:1793,0
DA:1794,0
DA:1795,0
DA:1796,0
DA:1797,0
DA:1798,0
DA:1799,0
DA:1800,0
DA:1801,0
DA:1802,0
DA:1803,0
DA:1804,0
DA:1805,0
DA:1806,0
DA:1807,0
DA:1808,0
DA:1809,0
DA:1810,0
DA:1811,0
DA:1812,0
DA:1813,0
DA:1814,0
DA:1815,0
DA:1816,0
DA:1817,0
DA:1818,0
DA:1819,0
DA:1820,0
DA:1821,0
DA:1822,0
DA:1823,0
DA:1824,0
DA:1825,0
DA:1826,0
DA:1827,0
DA:1828,0
DA:1829,0
DA:1830,0
DA:1831,0
DA:1832,0
DA:1833,0
DA:1834,0
DA:1835,0
DA:1836,0
DA:1837,0
DA:1838,0
DA:1839,0
DA:1840,0
DA:1842,0
DA:1846,0
DA:1847,0
DA:1848,0
DA:1849,0
DA:1850,0
DA:1851,0
DA:1852,0
DA:1853,0
DA:1854,0
DA:1855,0
DA:1856,0
DA:1857,0
DA:1858,0
DA:1859,0
DA:1860,0
DA:1861,0
DA:1862,0
DA:1863,0
DA:1864,0
DA:1865,0
DA:1866,0
DA:1867,0
DA:1868,0
DA:1869,0
DA:1870,0
DA:1871,0
DA:1872,0
DA:1873,0
DA:1874,0
DA:1875,0
DA:1876,0
DA:1877,0
DA:1878,0
DA:1879,0
DA:1880,0
DA:1881,0
DA:1882,0
DA:1883,0
DA:1884,0
DA:1885,0
DA:1886,0
DA:1887,0
DA:1888,0
DA:1889,0
DA:1890,0
DA:1891,0
DA:1892,0
DA:1893,0
DA:1894,0
DA:1895,0
DA:1896,0
DA:1897,0
DA:1898,0
DA:1899,0
DA:1900,0
DA:1901,0
DA:1902,0
DA:1903,0
DA:1904,0
DA:1905,0
DA:1906,0
DA:1907,0
DA:1908,0
DA:1909,0
DA:1910,0
DA:1911,0
DA:1912,0
DA:1913,0
DA:1914,0
DA:1915,0
DA:1917,0
DA:1950,0
DA:1951,0
DA:1952,0
DA:1953,0
DA:1955,0
DA:1958,0
DA:1959,0
DA:1960,0
DA:1961,0
DA:1963,0
DA:1967,0
DA:1968,0
DA:1969,0
DA:1970,0
DA:1972,0
DA:2009,5
DA:2010,5
DA:2011,5
DA:2013,25
DA:2014,25
DA:2015,25
DA:2017,22
DA:2018,22
DA:2019,22
DA:2024,4
DA:2025,4
DA:2026,4
DA:2030,2
DA:2031,2
DA:2032,2
DA:2036,4
DA:2037,4
DA:2038,4
DA:2039,1
DA:2040,3
DA:2041,4
DA:2042,2
DA:2043,2
DA:2044,4
DA:2045,1
DA:2046,3
DA:2047,4
DA:2048,0
DA:2049,4
DA:2050,4
DA:2051,1
DA:2052,1
DA:2054,0
DA:2057,3
DA:2059,4
DA:2077,0
DA:2078,0
DA:2079,0
DA:2080,0
DA:2081,0
DA:2082,0
DA:2084,0
DA:2086,0
DA:2090,0
DA:2091,0
DA:2092,0
DA:2093,0
DA:2095,0
DA:2099,0
DA:2100,0
DA:2101,0
DA:2121,0
DA:2122,0
DA:2123,0
DA:2124,0
DA:2125,0
DA:2127,0
DA:2131,0
DA:2132,0
DA:2133,0
DA:2134,0
DA:2136,0
DA:2140,0
DA:2141,0
DA:2142,0
DA:2157,0
DA:2158,0
DA:2159,0
DA:2160,0
DA:2161,0
DA:2162,0
DA:2183,0
DA:2185,0
DA:2186,0
DA:2187,0
DA:2189,0
DA:2193,2
DA:2195,2
DA:2196,2
DA:2197,2
DA:2198,2
DA:2199,2
DA:2200,2
DA:2201,2
DA:2202,2
DA:2203,2
DA:2204,2
DA:2205,2
DA:2207,0
DA:2209,0
DA:2210,0
DA:2211,0
DA:2212,0
DA:2213,0
DA:2214,0
DA:2215,0
DA:2216,0
DA:2217,0
DA:2218,0
DA:2219,0
DA:2221,0
DA:2222,0
DA:2223,0
DA:2225,0
DA:2226,0
DA:2227,0
DA:2250,4
DA:2251,4
DA:2252,4
DA:2253,3
DA:2254,3
DA:2255,3
DA:2257,13
DA:2258,13
DA:2259,13
DA:2264,5
DA:2265,5
DA:2266,5
DA:2269,0
DA:2270,0
DA:2271,0
DA:2338,0
DA:2339,0
DA:2340,0
DA:2341,0
DA:2342,0
DA:2343,0
DA:2344,0
DA:2345,0
DA:2346,0
DA:2347,0
DA:2348,0
DA:2349,0
DA:2350,0
DA:2351,0
DA:2352,0
DA:2353,0
DA:2354,0
DA:2355,0
DA:2356,0
DA:2357,0
DA:2358,0
DA:2359,0
DA:2360,0
DA:2361,0
DA:2362,0
DA:2363,0
DA:2364,0
DA:2365,0
DA:2366,0
DA:2367,0
DA:2368,0
DA:2369,0
DA:2370,0
DA:2371,0
DA:2372,0
DA:2374,0
DA:2401,0
DA:2402,0
DA:2403,0
DA:2408,0
DA:2409,0
DA:2410,0
DA:2411,0
DA:2415,0
DA:2416,0
DA:2417,0
DA:2418,0
DA:2419,0
DA:2420,0
DA:2421,0
DA:2422,0
DA:2423,0
DA:2424,0
DA:2425,0
DA:2426,0
DA:2427,0
DA:2428,0
DA:2429,0
DA:2430,0
DA:2431,0
DA:2432,0
DA:2433,0
DA:2434,0
DA:2435,0
DA:2436,0
DA:2437,0
DA:2438,0
DA:2439,0
DA:2440,0
DA:2441,0
DA:2442,0
DA:2443,0
DA:2444,0
DA:2445,0
DA:2446,0
DA:2447,0
DA:2448,0
DA:2449,0
DA:2450,0
DA:2451,0
DA:2452,0
DA:2453,0
DA:2454,0
DA:2455,0
DA:2456,0
DA:2457,0
DA:2458,0
DA:2459,0
DA:2460,0
DA:2461,0
DA:2462,0
DA:2463,0
DA:2464,0
DA:2465,0
DA:2466,0
DA:2467,0
DA:2468,0
DA:2469,0
DA:2470,0
DA:2471,0
DA:2472,0
DA:2473,0
DA:2474,0
DA:2475,0
DA:2476,0
DA:2477,0
DA:2478,0
DA:2479,0
DA:2480,0
DA:2481,0
DA:2482,0
DA:2483,0
DA:2484,0
DA:2485,0
DA:2486,0
DA:2487,0
DA:2488,0
DA:2489,0
DA:2490,0
DA:2491,0
DA:2492,0
DA:2493,0
DA:2494,0
DA:2495,0
DA:2502,0
DA:2503,0
DA:2504,0
DA:2507,0
DA:2508,0
DA:2509,0
DA:2514,0
DA:2515,0
DA:2516,0
DA:2517,0
DA:2518,0
DA:2519,0
DA:2522,0
DA:2523,0
DA:2524,0
DA:2531,0
DA:2532,0
DA:2533,0
DA:2542,0
DA:2543,0
DA:2544,0
DA:2545,0
DA:2546,0
DA:2547,0
DA:2548,0
DA:2549,0
DA:2550,0
DA:2551,0
DA:2552,0
DA:2553,0
DA:2554,0
DA:2581,0
DA:2582,0
DA:2583,0
DA:2584,0
DA:2587,0
DA:2588,0
DA:2589,0
DA:2590,0
DA:2592,0
DA:2593,0
DA:2594,0
DA:2598,0
DA:2599,0
DA:2600,0
DA:2601,0
DA:2603,0
DA:2604,0
DA:2610,0
DA:2612,0
DA:2614,0
DA:2621,0
DA:2622,0
DA:2625,0
DA:2626,0
DA:2627,0
DA:2628,0
DA:2629,0
DA:2640,0
DA:2645,0
DA:2646,0
DA:2647,0
DA:2648,0
DA:2649,0
DA:2650,0
DA:2651,0
DA:2652,0
DA:2653,0
DA:2654,0
DA:2655,0
DA:2656,0
DA:2657,0
DA:2658,0
DA:2659,0
DA:2660,0
DA:2661,0
DA:2662,0
DA:2663,0
DA:2664,0
DA:2665,0
DA:2666,0
DA:2667,0
DA:2668,0
DA:2669,0
DA:2670,0
DA:2671,0
DA:2672,0
DA:2675,0
DA:2676,0
DA:2677,0
DA:2680,0
DA:2681,0
DA:2682,0
DA:2683,0
DA:2684,0
DA:2685,0
DA:2686,0
DA:2687,0
DA:2688,0
DA:2689,0
DA:2690,0
DA:2693,0
DA:2694,0
DA:2695,0
DA:2696,0
DA:2697,0
DA:2698,0
DA:2699,0
DA:2700,0
DA:2701,0
DA:2702,0
DA:2705,0
DA:2706,0
DA:2707,0
DA:2708,0
DA:2709,0
DA:2710,0
DA:2711,0
DA:2712,0
DA:2715,0
DA:2716,0
DA:2717,0
DA:2721,0
DA:2722,0
DA:2723,0
DA:2724,0
DA:2725,0
DA:2726,0
DA:2727,0
DA:2728,0
DA:2729,0
DA:2730,0
DA:2731,0
DA:2732,0
DA:2733,0
DA:2734,0
DA:2737,0
DA:2751,0
DA:2754,0
DA:2755,0
DA:2756,0
DA:2757,0
DA:2758,0
DA:2759,0
DA:2761,0
DA:2762,0
DA:2763,0
DA:2764,0
DA:2765,0
DA:2767,0
DA:2768,0
DA:2769,0
DA:2770,0
DA:2771,0
DA:2772,0
DA:2773,0
DA:2774,0
DA:2775,0
DA:2776,0
DA:2778,0
DA:2781,0
DA:2782,0
DA:2783,0
DA:2784,0
DA:2785,0
DA:2786,0
DA:2787,0
DA:2788,0
DA:2790,0
DA:2791,0
DA:2792,0
DA:2794,0
DA:2795,0
DA:2796,0
DA:2797,0
DA:2800,0
DA:2801,0
DA:2802,0
DA:2803,0
DA:2804,0
DA:2807,0
DA:2810,0
DA:2827,0
DA:2828,0
DA:2829,0
DA:2832,0
DA:2833,0
DA:2834,0
DA:2837,0
DA:2838,0
DA:2839,0
DA:2843,0
DA:2844,0
DA:2845,0
DA:2846,0
DA:2847,0
DA:2849,0
DA:2850,0
DA:2851,0
DA:2852,0
DA:2854,0
DA:2855,0
DA:2856,0
DA:2859,0
DA:2860,0
DA:2861,0
DA:2864,0
DA:2865,0
DA:2866,0
DA:2869,0
DA:2870,0
DA:2871,0
DA:2872,0
DA:2873,0
DA:2874,0
DA:2875,0
DA:2879,0
DA:2880,0
DA:2881,0
DA:2885,0
DA:2886,0
DA:2887,0
DA:2888,0
DA:2889,0
DA:2915,0
DA:2916,0
DA:2917,0
DA:2919,0
DA:2920,0
DA:2921,0
DA:2922,0
DA:2923,0
DA:2924,0
DA:2925,0
DA:2926,0
DA:2927,0
DA:2928,0
DA:2929,0
DA:2930,0
DA:2931,0
DA:2932,0
DA:2933,0
DA:2934,0
DA:2936,0
DA:2937,0
DA:2939,0
DA:2940,0
DA:2941,0
DA:2943,0
DA:2944,0
DA:2945,0
DA:2946,0
DA:2947,0
DA:2948,0
DA:2949,0
DA:2950,0
DA:2951,0
DA:2954,0
DA:2955,0
DA:2956,0
DA:2957,0
DA:2959,0
DA:2960,0
DA:2961,0
DA:2962,0
DA:2963,0
DA:2971,0
DA:2972,0
DA:2973,0
DA:2974,0
DA:2976,0
DA:2977,0
DA:2978,0
DA:2979,0
DA:2980,0
DA:2982,0
DA:2983,0
DA:2984,0
DA:2988,0
DA:2989,0
DA:2990,0
DA:2991,0
DA:2992,0
DA:2993,0
DA:2994,0
DA:3001,0
DA:3003,0
DA:3004,0
DA:3005,0
DA:3006,0
DA:3007,0
DA:3008,0
DA:3009,0
DA:3010,0
DA:3011,0
DA:3012,0
DA:3014,0
DA:3015,0
DA:3016,0
DA:3017,0
DA:3018,0
DA:3019,0
DA:3023,0
DA:3024,0
DA:3025,0
DA:3028,3
DA:3030,3
DA:3031,3
DA:3032,0
DA:3033,3
DA:3036,3
DA:3038,3
DA:3039,0
DA:3040,0
DA:3041,0
DA:3042,0
DA:3043,0
DA:3044,0
DA:3045,0
DA:3046,0
DA:3047,0
DA:3049,3
DA:3050,3
DA:3052,0
DA:3055,3
DA:3057,0
DA:3059,0
DA:3063,0
DA:3064,0
DA:3065,0
DA:3066,0
DA:3067,0
DA:3068,0
DA:3069,0
DA:3070,0
DA:3072,0
DA:3073,0
DA:3074,0
DA:3075,0
DA:3078,0
DA:3079,0
DA:3080,0
DA:3081,0
DA:3082,0
DA:3083,0
DA:3084,0
DA:3085,0
DA:3086,0
DA:3088,0
DA:3089,0
DA:3090,0
DA:3091,0
DA:3093,0
DA:3094,0
DA:3096,0
DA:3099,0
DA:3101,0
DA:3102,0
DA:3103,0
DA:3104,0
DA:3105,0
DA:3107,0
DA:3108,0
DA:3109,0
DA:3110,0
DA:3111,0
DA:3113,0
DA:3115,0
DA:3117,0
DA:3119,0
DA:3120,0
DA:3121,0
DA:3122,0
DA:3123,0
DA:3125,0
DA:3127,0
DA:3129,0
DA:3130,0
DA:3131,0
DA:3132,0
DA:3133,0
DA:3134,0
DA:3135,0
DA:3136,0
DA:3138,0
DA:3141,0
DA:3142,0
DA:3143,0
DA:3145,0
DA:3147,0
DA:3149,1
DA:3151,1
DA:3152,1
DA:3153,1
DA:3154,1
DA:3155,1
DA:3156,0
DA:3157,0
DA:3158,0
DA:3159,0
DA:3160,0
DA:3162,0
DA:3163,0
DA:3164,0
DA:3165,0
DA:3167,0
DA:3168,0
DA:3170,0
DA:3172,0
DA:3179,1
DA:3182,1
DA:3183,1
DA:3184,1
BRF:0
BRH:0
LF:1389
LH:327
end_of_record
SF:/home/bzf/projects/pmix-rs/src/monitoring.rs
FN:117,_RNCNvNtCsyULe2umut5_4pmix10monitoring11MONITOR_SEQ0B5_
FN:70,_RNvMNtCsyULe2umut5_4pmix10monitoringNtB2_14MonitorResults3len
FN:75,_RNvMNtCsyULe2umut5_4pmix10monitoringNtB2_14MonitorResults8is_empty
FN:442,_RNvNtNtCsyULe2umut5_4pmix10monitoring5testss_24test_monitor_results_len
FN:452,_RNvNtNtCsyULe2umut5_4pmix10monitoring5testss_29test_monitor_results_nonempty
FN:432,_RNvNtNtCsyULe2umut5_4pmix10monitoring5testss_34test_monitor_callback_trait_object
FN:435,_RNvXNvNtNtCsyULe2umut5_4pmix10monitoring5testss_34test_monitor_callback_trait_objectNtB2_12DummyMonitorNtB6_15MonitorCallback11on_complete
FN:81,_RNvXs_NtCsyULe2umut5_4pmix10monitoringNtB4_14MonitorResultsNtNtNtCs27Vx93FoQ6z_4core3ops4drop4Drop4drop
FN:205,_RNvNtCsyULe2umut5_4pmix10monitoring15process_monitor
FN:288,_RNvNtCsyULe2umut5_4pmix10monitoring18process_monitor_nb
FN:124,_RNvNtCsyULe2umut5_4pmix10monitoring23monitor_callback_bridge
FN:379,_RNvNtCsyULe2umut5_4pmix10monitoring9heartbeat
FNDA:0,_RNCNvNtCsyULe2umut5_4pmix10monitoring11MONITOR_SEQ0B5_
FNDA:2,_RNvMNtCsyULe2umut5_4pmix10monitoringNtB2_14MonitorResults3len
FNDA:2,_RNvMNtCsyULe2umut5_4pmix10monitoringNtB2_14MonitorResults8is_empty
FNDA:1,_RNvNtNtCsyULe2umut5_4pmix10monitoring5testss_24test_monitor_results_len
FNDA:1,_RNvNtNtCsyULe2umut5_4pmix10monitoring5testss_29test_monitor_results_nonempty
FNDA:1,_RNvNtNtCsyULe2umut5_4pmix10monitoring5testss_34test_monitor_callback_trait_object
FNDA:0,_RNvXNvNtNtCsyULe2umut5_4pmix10monitoring5testss_34test_monitor_callback_trait_objectNtB2_12DummyMonitorNtB6_15MonitorCallback11on_complete
FNDA:2,_RNvXs_NtCsyULe2umut5_4pmix10monitoringNtB4_14MonitorResultsNtNtNtCs27Vx93FoQ6z_4core3ops4drop4Drop4drop
FNDA:0,_RNvNtCsyULe2umut5_4pmix10monitoring15process_monitor
FNDA:0,_RNvNtCsyULe2umut5_4pmix10monitoring18process_monitor_nb
FNDA:0,_RNvNtCsyULe2umut5_4pmix10monitoring23monitor_callback_bridge
FNDA:0,_RNvNtCsyULe2umut5_4pmix10monitoring9heartbeat
FNF:12
FNH:6
DA:70,2
DA:71,2
DA:72,2
DA:75,2
DA:76,2
DA:77,2
DA:81,2
DA:82,2
DA:83,0
DA:84,0
DA:85,0
DA:86,0
DA:87,0
DA:88,0
DA:89,0
DA:90,2
DA:91,2
DA:117,0
DA:124,0
DA:125,0
DA:126,0
DA:127,0
DA:128,0
DA:129,0
DA:130,0
DA:131,0
DA:133,0
DA:136,0
DA:137,0
DA:138,0
DA:140,0
DA:141,0
DA:143,0
DA:144,0
DA:145,0
DA:146,0
DA:147,0
DA:149,0
DA:151,0
DA:156,0
DA:157,0
DA:158,0
DA:159,0
DA:160,0
DA:161,0
DA:164,0
DA:205,0
DA:206,0
DA:207,0
DA:208,0
DA:209,0
DA:210,0
DA:211,0
DA:214,0
DA:215,0
DA:219,0
DA:220,0
DA:221,0
DA:222,0
DA:223,0
DA:227,0
DA:228,0
DA:229,0
DA:230,0
DA:234,0
DA:240,0
DA:241,0
DA:242,0
DA:243,0
DA:244,0
DA:245,0
DA:246,0
DA:250,0
DA:252,0
DA:253,0
DA:254,0
DA:255,0
DA:256,0
DA:258,0
DA:260,0
DA:288,0
DA:289,0
DA:290,0
DA:291,0
DA:292,0
DA:293,0
DA:295,0
DA:296,0
DA:297,0
DA:298,0
DA:300,0
DA:301,0
DA:302,0
DA:303,0
DA:306,0
DA:309,0
DA:310,0
DA:312,0
DA:313,0
DA:314,0
DA:315,0
DA:318,0
DA:325,0
DA:326,0
DA:327,0
DA:328,0
DA:329,0
DA:330,0
DA:331,0
DA:335,0
DA:336,0
DA:337,0
DA:340,0
DA:341,0
DA:342,0
DA:344,0
DA:379,0
DA:387,0
DA:388,0
DA:390,0
DA:391,0
DA:392,0
DA:393,0
DA:394,0
DA:395,0
DA:396,0
DA:397,0
DA:400,0
DA:404,0
DA:405,0
DA:406,0
DA:407,0
DA:409,0
DA:410,0
DA:415,0
DA:416,0
DA:417,0
DA:419,0
DA:420,0
DA:421,0
DA:423,0
DA:425,0
DA:432,1
DA:435,0
DA:437,1
DA:438,1
DA:439,1
DA:442,1
DA:443,1
DA:444,1
DA:445,1
DA:446,1
DA:447,1
DA:448,1
DA:449,1
DA:452,1
DA:453,1
DA:454,1
DA:455,1
DA:456,1
DA:457,1
DA:458,1
DA:459,1
BRF:0
BRH:0
LF:163
LH:30
end_of_record
SF:/home/bzf/projects/pmix-rs/src/process_mgmt.rs
FN:1293,_RNvNtNtCsyULe2umut5_4pmix12process_mgmt5testss_25test_pmix_app_builder_arg
FN:1287,_RNvNtNtCsyULe2umut5_4pmix12process_mgmt5testss_25test_pmix_app_builder_cmd
FN:1323,_RNvNtNtCsyULe2umut5_4pmix12process_mgmt5testss_25test_pmix_app_builder_cwd
FN:1313,_RNvNtNtCsyULe2umut5_4pmix12process_mgmt5testss_25test_pmix_app_builder_env
FN:1280,_RNvNtNtCsyULe2umut5_4pmix12process_mgmt5testss_25test_pmix_app_builder_new
FN:1303,_RNvNtNtCsyULe2umut5_4pmix12process_mgmt5testss_26test_pmix_app_builder_args
FN:1333,_RNvNtNtCsyULe2umut5_4pmix12process_mgmt5testss_30test_pmix_app_builder_maxprocs
FN:1339,_RNvNtNtCsyULe2umut5_4pmix12process_mgmt5testss_31test_pmix_app_builder_nul_error
FN:177,_RNvMNtCsyULe2umut5_4pmix12process_mgmtNtB2_7PmixApp3cmd
FN:192,_RNvMNtCsyULe2umut5_4pmix12process_mgmtNtB2_7PmixApp3cwd
FN:182,_RNvMNtCsyULe2umut5_4pmix12process_mgmtNtB2_7PmixApp4argv
FN:187,_RNvMNtCsyULe2umut5_4pmix12process_mgmtNtB2_7PmixApp8env_vars
FN:197,_RNvMNtCsyULe2umut5_4pmix12process_mgmtNtB2_7PmixApp8maxprocs
FN:240,_RNvMs_NtCsyULe2umut5_4pmix12process_mgmtNtB4_14PmixAppBuilder3arg
FN:234,_RNvMs_NtCsyULe2umut5_4pmix12process_mgmtNtB4_14PmixAppBuilder3cmd
FN:274,_RNvMs_NtCsyULe2umut5_4pmix12process_mgmtNtB4_14PmixAppBuilder3cwd
FN:257,_RNvMs_NtCsyULe2umut5_4pmix12process_mgmtNtB4_14PmixAppBuilder3env
FN:229,_RNvMs_NtCsyULe2umut5_4pmix12process_mgmtNtB4_14PmixAppBuilder3new
FN:288,_RNvMs_NtCsyULe2umut5_4pmix12process_mgmtNtB4_14PmixAppBuilder5build
FN:281,_RNvMs_NtCsyULe2umut5_4pmix12process_mgmtNtB4_14PmixAppBuilder8maxprocs
FN:246,_RINvMs_NtCsyULe2umut5_4pmix12process_mgmtNtB5_14PmixAppBuilder4argsINtNtCsgW8esjfipvk_5alloc3vec3VecNtNtB18_6string6StringEEB7_
FN:178,_RNCNvMNtCsyULe2umut5_4pmix12process_mgmtNtB4_7PmixApp3cmd0B6_
FN:193,_RNCNvMNtCsyULe2umut5_4pmix12process_mgmtNtB4_7PmixApp3cwd0B6_
FN:293,_RNCNvMs_NtCsyULe2umut5_4pmix12process_mgmtNtB6_14PmixAppBuilder5build0B8_
FN:298,_RNCNvMs_NtCsyULe2umut5_4pmix12process_mgmtNtB6_14PmixAppBuilder5builds_0B8_
FN:489,_RINvMs0_NtCsyULe2umut5_4pmix12process_mgmtNtB6_20SpawnCallbackWrapper3newpEB8_
FN:773,_RINvMs1_NtCsyULe2umut5_4pmix12process_mgmtNtB6_22ConnectCallbackWrapper3newpEB8_
FN:995,_RINvMs2_NtCsyULe2umut5_4pmix12process_mgmtNtB6_25DisconnectCallbackWrapper3newpEB8_
FN:263,_RINvMs_NtCsyULe2umut5_4pmix12process_mgmtNtB5_14PmixAppBuilder4envspEB7_
FN:399,_RNCNvNtCsyULe2umut5_4pmix12process_mgmt5spawn0B5_
FN:416,_RNCNvNtCsyULe2umut5_4pmix12process_mgmt5spawns_0B5_
FN:597,_RNCNvNtCsyULe2umut5_4pmix12process_mgmt8spawn_nb0B5_
FN:613,_RNCNvNtCsyULe2umut5_4pmix12process_mgmt8spawn_nbs_0B5_
FN:172,_RNvMNtCsyULe2umut5_4pmix12process_mgmtNtB2_7PmixApp7builder
FN:808,_RNvNtCsyULe2umut5_4pmix12process_mgmt10connect_nb
FN:934,_RNvNtCsyULe2umut5_4pmix12process_mgmt10disconnect
FN:1030,_RNvNtCsyULe2umut5_4pmix12process_mgmt13disconnect_nb
FN:1238,_RNvNtCsyULe2umut5_4pmix12process_mgmt13resolve_nodes
FN:1141,_RNvNtCsyULe2umut5_4pmix12process_mgmt13resolve_peers
FN:96,_RNvNtCsyULe2umut5_4pmix12process_mgmt5abort
FN:351,_RNvNtCsyULe2umut5_4pmix12process_mgmt5spawn
FN:709,_RNvNtCsyULe2umut5_4pmix12process_mgmt7connect
FN:521,_RNvNtCsyULe2umut5_4pmix12process_mgmt8spawn_nb
FN:826,_RNvNvNtCsyULe2umut5_4pmix12process_mgmt10connect_nb23connect_callback_bridge
FN:1048,_RNvNvNtCsyULe2umut5_4pmix12process_mgmt13disconnect_nb26disconnect_callback_bridge
FN:539,_RNvNvNtCsyULe2umut5_4pmix12process_mgmt8spawn_nb21spawn_callback_bridge
FN:373,_RNvXNvNtCsyULe2umut5_4pmix12process_mgmt5spawnNtB2_13AppArrayGuardNtNtNtCs27Vx93FoQ6z_4core3ops4drop4Drop4drop
FN:572,_RNvXNvNtCsyULe2umut5_4pmix12process_mgmt8spawn_nbNtB2_15NbAppArrayGuardNtNtNtCs27Vx93FoQ6z_4core3ops4drop4Drop4drop
FNDA:1,_RNvNtNtCsyULe2umut5_4pmix12process_mgmt5testss_25test_pmix_app_builder_arg
FNDA:1,_RNvNtNtCsyULe2umut5_4pmix12process_mgmt5testss_25test_pmix_app_builder_cmd
FNDA:1,_RNvNtNtCsyULe2umut5_4pmix12process_mgmt5testss_25test_pmix_app_builder_cwd
FNDA:1,_RNvNtNtCsyULe2umut5_4pmix12process_mgmt5testss_25test_pmix_app_builder_env
FNDA:1,_RNvNtNtCsyULe2umut5_4pmix12process_mgmt5testss_25test_pmix_app_builder_new
FNDA:1,_RNvNtNtCsyULe2umut5_4pmix12process_mgmt5testss_26test_pmix_app_builder_args
FNDA:1,_RNvNtNtCsyULe2umut5_4pmix12process_mgmt5testss_30test_pmix_app_builder_maxprocs
FNDA:1,_RNvNtNtCsyULe2umut5_4pmix12process_mgmt5testss_31test_pmix_app_builder_nul_error
FNDA:2,_RNvMNtCsyULe2umut5_4pmix12process_mgmtNtB2_7PmixApp3cmd
FNDA:1,_RNvMNtCsyULe2umut5_4pmix12process_mgmtNtB2_7PmixApp3cwd
FNDA:3,_RNvMNtCsyULe2umut5_4pmix12process_mgmtNtB2_7PmixApp4argv
FNDA:1,_RNvMNtCsyULe2umut5_4pmix12process_mgmtNtB2_7PmixApp8env_vars
FNDA:1,_RNvMNtCsyULe2umut5_4pmix12process_mgmtNtB2_7PmixApp8maxprocs
FNDA:1,_RNvMs_NtCsyULe2umut5_4pmix12process_mgmtNtB4_14PmixAppBuilder3arg
FNDA:6,_RNvMs_NtCsyULe2umut5_4pmix12process_mgmtNtB4_14PmixAppBuilder3cmd
FNDA:1,_RNvMs_NtCsyULe2umut5_4pmix12process_mgmtNtB4_14PmixAppBuilder3cwd
FNDA:1,_RNvMs_NtCsyULe2umut5_4pmix12process_mgmtNtB4_14PmixAppBuilder3env
FNDA:8,_RNvMs_NtCsyULe2umut5_4pmix12process_mgmtNtB4_14PmixAppBuilder3new
FNDA:8,_RNvMs_NtCsyULe2umut5_4pmix12process_mgmtNtB4_14PmixAppBuilder5build
FNDA:1,_RNvMs_NtCsyULe2umut5_4pmix12process_mgmtNtB4_14PmixAppBuilder8maxprocs
FNDA:1,_RINvMs_NtCsyULe2umut5_4pmix12process_mgmtNtB5_14PmixAppBuilder4argsINtNtCsgW8esjfipvk_5alloc3vec3VecNtNtB18_6string6StringEEB7_
FNDA:1,_RNCNvMNtCsyULe2umut5_4pmix12process_mgmtNtB4_7PmixApp3cmd0B6_
FNDA:1,_RNCNvMNtCsyULe2umut5_4pmix12process_mgmtNtB4_7PmixApp3cwd0B6_
FNDA:3,_RNCNvMs_NtCsyULe2umut5_4pmix12process_mgmtNtB6_14PmixAppBuilder5build0B8_
FNDA:1,_RNCNvMs_NtCsyULe2umut5_4pmix12process_mgmtNtB6_14PmixAppBuilder5builds_0B8_
FNDA:0,_RINvMs0_NtCsyULe2umut5_4pmix12process_mgmtNtB6_20SpawnCallbackWrapper3newpEB8_
FNDA:0,_RINvMs1_NtCsyULe2umut5_4pmix12process_mgmtNtB6_22ConnectCallbackWrapper3newpEB8_
FNDA:0,_RINvMs2_NtCsyULe2umut5_4pmix12process_mgmtNtB6_25DisconnectCallbackWrapper3newpEB8_
FNDA:0,_RINvMs_NtCsyULe2umut5_4pmix12process_mgmtNtB5_14PmixAppBuilder4envspEB7_
FNDA:0,_RNCNvNtCsyULe2umut5_4pmix12process_mgmt5spawn0B5_
FNDA:0,_RNCNvNtCsyULe2umut5_4pmix12process_mgmt5spawns_0B5_
FNDA:0,_RNCNvNtCsyULe2umut5_4pmix12process_mgmt8spawn_nb0B5_
FNDA:0,_RNCNvNtCsyULe2umut5_4pmix12process_mgmt8spawn_nbs_0B5_
FNDA:0,_RNvMNtCsyULe2umut5_4pmix12process_mgmtNtB2_7PmixApp7builder
FNDA:0,_RNvNtCsyULe2umut5_4pmix12process_mgmt10connect_nb
FNDA:0,_RNvNtCsyULe2umut5_4pmix12process_mgmt10disconnect
FNDA:0,_RNvNtCsyULe2umut5_4pmix12process_mgmt13disconnect_nb
FNDA:0,_RNvNtCsyULe2umut5_4pmix12process_mgmt13resolve_nodes
FNDA:0,_RNvNtCsyULe2umut5_4pmix12process_mgmt13resolve_peers
FNDA:0,_RNvNtCsyULe2umut5_4pmix12process_mgmt5abort
FNDA:0,_RNvNtCsyULe2umut5_4pmix12process_mgmt5spawn
FNDA:0,_RNvNtCsyULe2umut5_4pmix12process_mgmt7connect
FNDA:0,_RNvNtCsyULe2umut5_4pmix12process_mgmt8spawn_nb
FNDA:0,_RNvNvNtCsyULe2umut5_4pmix12process_mgmt10connect_nb23connect_callback_bridge
FNDA:0,_RNvNvNtCsyULe2umut5_4pmix12process_mgmt13disconnect_nb26disconnect_callback_bridge
FNDA:0,_RNvNvNtCsyULe2umut5_4pmix12process_mgmt8spawn_nb21spawn_callback_bridge
FNDA:0,_RNvXNvNtCsyULe2umut5_4pmix12process_mgmt5spawnNtB2_13AppArrayGuardNtNtNtCs27Vx93FoQ6z_4core3ops4drop4Drop4drop
FNDA:0,_RNvXNvNtCsyULe2umut5_4pmix12process_mgmt8spawn_nbNtB2_15NbAppArrayGuardNtNtNtCs27Vx93FoQ6z_4core3ops4drop4Drop4drop
FNF:48
FNH:25
DA:96,0
DA:97,0
DA:98,0
DA:99,0
DA:100,0
DA:102,0
DA:103,0
DA:104,0
DA:105,0
DA:107,0
DA:111,0
DA:112,0
DA:113,0
DA:114,0
DA:115,0
DA:116,0
DA:130,0
DA:131,0
DA:132,0
DA:133,0
DA:134,0
DA:135,0
DA:139,0
DA:140,0
DA:141,0
DA:143,0
DA:145,0
DA:172,0
DA:173,0
DA:174,0
DA:177,2
DA:178,2
DA:179,2
DA:182,3
DA:183,3
DA:184,3
DA:187,1
DA:188,1
DA:189,1
DA:192,1
DA:193,1
DA:194,1
DA:197,1
DA:198,1
DA:199,1
DA:229,8
DA:230,8
DA:231,8
DA:234,6
DA:235,6
DA:236,6
DA:237,6
DA:240,1
DA:241,1
DA:242,1
DA:243,1
DA:246,1
DA:247,1
DA:248,1
DA:250,2
DA:251,2
DA:252,2
DA:253,1
DA:254,1
DA:257,1
DA:258,1
DA:259,1
DA:260,1
DA:263,0
DA:264,0
DA:265,0
DA:267,0
DA:268,0
DA:269,0
DA:270,0
DA:271,0
DA:274,1
DA:275,1
DA:276,1
DA:277,1
DA:281,1
DA:282,1
DA:283,1
DA:284,1
DA:288,8
DA:289,8
DA:290,7
DA:291,7
DA:292,7
DA:293,7
DA:294,7
DA:295,7
DA:296,7
DA:297,7
DA:298,7
DA:299,7
DA:300,7
DA:302,7
DA:303,7
DA:304,7
DA:305,7
DA:306,7
DA:307,7
DA:308,7
DA:309,8
DA:351,0
DA:352,0
DA:353,0
DA:354,0
DA:356,0
DA:360,0
DA:361,0
DA:362,0
DA:363,0
DA:373,0
DA:374,0
DA:375,0
DA:377,0
DA:379,0
DA:380,0
DA:383,0
DA:384,0
DA:385,0
DA:387,0
DA:390,0
DA:391,0
DA:393,0
DA:395,0
DA:396,0
DA:398,0
DA:399,0
DA:400,0
DA:403,0
DA:405,0
DA:408,0
DA:409,0
DA:411,0
DA:412,0
DA:413,0
DA:415,0
DA:416,0
DA:417,0
DA:419,0
DA:421,0
DA:424,0
DA:425,0
DA:426,0
DA:428,0
DA:431,0
DA:434,0
DA:435,0
DA:436,0
DA:437,0
DA:441,0
DA:444,0
DA:451,0
DA:452,0
DA:460,0
DA:461,0
DA:464,0
DA:465,0
DA:466,0
DA:467,0
DA:469,0
DA:471,0
DA:489,0
DA:490,0
DA:491,0
DA:493,0
DA:494,0
DA:495,0
DA:496,0
DA:521,0
DA:522,0
DA:523,0
DA:524,0
DA:525,0
DA:526,0
DA:527,0
DA:528,0
DA:533,0
DA:539,0
DA:540,0
DA:541,0
DA:542,0
DA:543,0
DA:544,0
DA:546,0
DA:547,0
DA:548,0
DA:549,0
DA:551,0
DA:554,0
DA:556,0
DA:558,0
DA:561,0
DA:562,0
DA:563,0
DA:564,0
DA:565,0
DA:572,0
DA:573,0
DA:574,0
DA:576,0
DA:578,0
DA:579,0
DA:582,0
DA:583,0
DA:584,0
DA:586,0
DA:589,0
DA:590,0
DA:592,0
DA:593,0
DA:594,0
DA:596,0
DA:597,0
DA:598,0
DA:600,0
DA:602,0
DA:605,0
DA:606,0
DA:608,0
DA:609,0
DA:610,0
DA:612,0
DA:613,0
DA:614,0
DA:616,0
DA:618,0
DA:621,0
DA:622,0
DA:623,0
DA:625,0
DA:628,0
DA:629,0
DA:630,0
DA:631,0
DA:632,0
DA:644,0
DA:645,0
DA:646,0
DA:648,0
DA:649,0
DA:650,0
DA:651,0
DA:657,0
DA:658,0
DA:659,0
DA:663,0
DA:665,0
DA:709,0
DA:710,0
DA:711,0
DA:712,0
DA:719,0
DA:720,0
DA:724,0
DA:725,0
DA:730,0
DA:731,0
DA:732,0
DA:733,0
DA:734,0
DA:735,0
DA:747,0
DA:749,0
DA:750,0
DA:751,0
DA:753,0
DA:755,0
DA:773,0
DA:774,0
DA:775,0
DA:777,0
DA:778,0
DA:779,0
DA:780,0
DA:808,0
DA:809,0
DA:810,0
DA:811,0
DA:812,0
DA:813,0
DA:814,0
DA:815,0
DA:820,0
DA:826,0
DA:827,0
DA:828,0
DA:829,0
DA:831,0
DA:835,0
DA:836,0
DA:840,0
DA:841,0
DA:843,0
DA:844,0
DA:845,0
DA:846,0
DA:847,0
DA:848,0
DA:860,0
DA:861,0
DA:862,0
DA:863,0
DA:864,0
DA:865,0
DA:866,0
DA:867,0
DA:871,0
DA:872,0
DA:873,0
DA:877,0
DA:878,0
DA:880,0
DA:934,0
DA:935,0
DA:936,0
DA:937,0
DA:944,0
DA:945,0
DA:949,0
DA:950,0
DA:952,0
DA:953,0
DA:954,0
DA:955,0
DA:956,0
DA:957,0
DA:969,0
DA:971,0
DA:972,0
DA:973,0
DA:975,0
DA:977,0
DA:995,0
DA:996,0
DA:997,0
DA:999,0
DA:1000,0
DA:1001,0
DA:1002,0
DA:1030,0
DA:1031,0
DA:1032,0
DA:1033,0
DA:1034,0
DA:1035,0
DA:1036,0
DA:1037,0
DA:1042,0
DA:1048,0
DA:1049,0
DA:1050,0
DA:1051,0
DA:1053,0
DA:1057,0
DA:1058,0
DA:1062,0
DA:1063,0
DA:1065,0
DA:1066,0
DA:1067,0
DA:1068,0
DA:1069,0
DA:1070,0
DA:1082,0
DA:1083,0
DA:1084,0
DA:1085,0
DA:1086,0
DA:1087,0
DA:1088,0
DA:1089,0
DA:1093,0
DA:1094,0
DA:1095,0
DA:1099,0
DA:1100,0
DA:1102,0
DA:1141,0
DA:1142,0
DA:1143,0
DA:1144,0
DA:1146,0
DA:1147,0
DA:1148,0
DA:1149,0
DA:1151,0
DA:1155,0
DA:1156,0
DA:1157,0
DA:1158,0
DA:1160,0
DA:1163,0
DA:1164,0
DA:1172,0
DA:1173,0
DA:1175,0
DA:1176,0
DA:1177,0
DA:1178,0
DA:1183,0
DA:1184,0
DA:1186,0
DA:1189,0
DA:1190,0
DA:1191,0
DA:1192,0
DA:1193,0
DA:1194,0
DA:1195,0
DA:1196,0
DA:1197,0
DA:1199,0
DA:1200,0
DA:1204,0
DA:1205,0
DA:1238,0
DA:1240,0
DA:1242,0
DA:1250,0
DA:1252,0
DA:1253,0
DA:1254,0
DA:1255,0
DA:1260,0
DA:1261,0
DA:1263,0
DA:1264,0
DA:1265,0
DA:1266,0
DA:1268,0
DA:1269,0
DA:1272,0
DA:1273,0
DA:1280,1
DA:1281,1
DA:1282,1
DA:1283,1
DA:1284,1
DA:1287,1
DA:1288,1
DA:1289,1
DA:1290,1
DA:1293,1
DA:1294,1
DA:1295,1
DA:1296,1
DA:1297,1
DA:1298,1
DA:1299,1
DA:1300,1
DA:1303,1
DA:1304,1
DA:1305,1
DA:1306,1
DA:1307,1
DA:1308,1
DA:1309,1
DA:1310,1
DA:1313,1
DA:1314,1
DA:1315,1
DA:1316,1
DA:1317,1
DA:1318,1
DA:1319,1
DA:1320,1
DA:1323,1
DA:1324,1
DA:1325,1
DA:1326,1
DA:1327,1
DA:1328,1
DA:1329,1
DA:1330,1
DA:1333,1
DA:1334,1
DA:1335,1
DA:1336,1
DA:1339,1
DA:1340,1
DA:1341,1
DA:1342,1
BRF:0
BRH:0
LF:494
LH:120
end_of_record
SF:/home/bzf/projects/pmix-rs/src/query_log.rs
FN:679,_RNvNtNtCsyULe2umut5_4pmix9query_log5testss_19test_pmix_query_new
FN:691,_RNvNtNtCsyULe2umut5_4pmix9query_log5testss_24test_query_results_empty
FN:685,_RNvNtNtCsyULe2umut5_4pmix9query_log5testss_26test_pmix_query_empty_keys
FN:701,_RNvNtNtCsyULe2umut5_4pmix9query_log5testss_27test_query_results_nonempty
FN:721,_RNvNtNtCsyULe2umut5_4pmix9query_log5testss_30test_log_callback_trait_object
FN:711,_RNvNtNtCsyULe2umut5_4pmix9query_log5testss_32test_query_callback_trait_object
FN:724,_RNvXNvNtNtCsyULe2umut5_4pmix9query_log5testss_30test_log_callback_trait_objectNtB2_8DummyLogNtB6_11LogCallback11on_complete
FN:714,_RNvXNvNtNtCsyULe2umut5_4pmix9query_log5testss_32test_query_callback_trait_objectNtB2_10DummyQueryNtB6_13QueryCallback11on_complete
FN:105,_RNCNvMs_NtCsyULe2umut5_4pmix9query_logNtB6_9PmixQuery3new0B8_
FN:120,_RNCNvMs_NtCsyULe2umut5_4pmix9query_logNtB6_9PmixQuery3news_0B8_
FN:556,_RNCNvNtCsyULe2umut5_4pmix9query_log12LOG_REGISTRY0B5_
FN:343,_RNCNvNtCsyULe2umut5_4pmix9query_log14QUERY_REGISTRY0B5_
FN:559,_RNCNvNtCsyULe2umut5_4pmix9query_log7LOG_SEQ0B5_
FN:346,_RNCNvNtCsyULe2umut5_4pmix9query_log9QUERY_SEQ0B5_
FN:236,_RNvMs2_NtCsyULe2umut5_4pmix9query_logNtB5_12QueryResults3len
FN:241,_RNvMs2_NtCsyULe2umut5_4pmix9query_logNtB5_12QueryResults8is_empty
FN:146,_RNvMs_NtCsyULe2umut5_4pmix9query_logNtB4_9PmixQuery16alloc_keys_array
FN:89,_RNvMs_NtCsyULe2umut5_4pmix9query_logNtB4_9PmixQuery3new
FN:178,_RNvXs0_NtCsyULe2umut5_4pmix9query_logNtB5_9PmixQueryNtNtNtCs27Vx93FoQ6z_4core3ops4drop4Drop4drop
FN:247,_RNvXs3_NtCsyULe2umut5_4pmix9query_logNtB5_12QueryResultsNtNtNtCs27Vx93FoQ6z_4core3ops4drop4Drop4drop
FN:162,_RNvMs_NtCsyULe2umut5_4pmix9query_logNtB4_9PmixQuery15with_qualifiers
FN:285,_RNvNtCsyULe2umut5_4pmix9query_log10query_info
FN:606,_RNvNtCsyULe2umut5_4pmix9query_log11log_data_nb
FN:414,_RNvNtCsyULe2umut5_4pmix9query_log13query_info_nb
FN:566,_RNvNtCsyULe2umut5_4pmix9query_log19log_callback_bridge
FN:357,_RNvNtCsyULe2umut5_4pmix9query_log21query_callback_bridge
FN:501,_RNvNtCsyULe2umut5_4pmix9query_log8log_data
FN:72,_RNvXNtCsyULe2umut5_4pmix9query_logNtB2_9PmixQueryNtNtCs27Vx93FoQ6z_4core3fmt5Debug3fmt
FN:227,_RNvXs1_NtCsyULe2umut5_4pmix9query_logNtB5_12QueryResultsNtNtCs27Vx93FoQ6z_4core3fmt5Debug3fmt
FNDA:1,_RNvNtNtCsyULe2umut5_4pmix9query_log5testss_19test_pmix_query_new
FNDA:1,_RNvNtNtCsyULe2umut5_4pmix9query_log5testss_24test_query_results_empty
FNDA:1,_RNvNtNtCsyULe2umut5_4pmix9query_log5testss_26test_pmix_query_empty_keys
FNDA:1,_RNvNtNtCsyULe2umut5_4pmix9query_log5testss_27test_query_results_nonempty
FNDA:1,_RNvNtNtCsyULe2umut5_4pmix9query_log5testss_30test_log_callback_trait_object
FNDA:1,_RNvNtNtCsyULe2umut5_4pmix9query_log5testss_32test_query_callback_trait_object
FNDA:0,_RNvXNvNtNtCsyULe2umut5_4pmix9query_log5testss_30test_log_callback_trait_objectNtB2_8DummyLogNtB6_11LogCallback11on_complete
FNDA:0,_RNvXNvNtNtCsyULe2umut5_4pmix9query_log5testss_32test_query_callback_trait_objectNtB2_10DummyQueryNtB6_13QueryCallback11on_complete
FNDA:1,_RNCNvMs_NtCsyULe2umut5_4pmix9query_logNtB6_9PmixQuery3new0B8_
FNDA:1,_RNCNvMs_NtCsyULe2umut5_4pmix9query_logNtB6_9PmixQuery3news_0B8_
FNDA:0,_RNCNvNtCsyULe2umut5_4pmix9query_log12LOG_REGISTRY0B5_
FNDA:0,_RNCNvNtCsyULe2umut5_4pmix9query_log14QUERY_REGISTRY0B5_
FNDA:0,_RNCNvNtCsyULe2umut5_4pmix9query_log7LOG_SEQ0B5_
FNDA:0,_RNCNvNtCsyULe2umut5_4pmix9query_log9QUERY_SEQ0B5_
FNDA:2,_RNvMs2_NtCsyULe2umut5_4pmix9query_logNtB5_12QueryResults3len
FNDA:2,_RNvMs2_NtCsyULe2umut5_4pmix9query_logNtB5_12QueryResults8is_empty
FNDA:1,_RNvMs_NtCsyULe2umut5_4pmix9query_logNtB4_9PmixQuery16alloc_keys_array
FNDA:2,_RNvMs_NtCsyULe2umut5_4pmix9query_logNtB4_9PmixQuery3new
FNDA:1,_RNvXs0_NtCsyULe2umut5_4pmix9query_logNtB5_9PmixQueryNtNtNtCs27Vx93FoQ6z_4core3ops4drop4Drop4drop
FNDA:2,_RNvXs3_NtCsyULe2umut5_4pmix9query_logNtB5_12QueryResultsNtNtNtCs27Vx93FoQ6z_4core3ops4drop4Drop4drop
FNDA:0,_RNvMs_NtCsyULe2umut5_4pmix9query_logNtB4_9PmixQuery15with_qualifiers
FNDA:0,_RNvNtCsyULe2umut5_4pmix9query_log10query_info
FNDA:0,_RNvNtCsyULe2umut5_4pmix9query_log11log_data_nb
FNDA:0,_RNvNtCsyULe2umut5_4pmix9query_log13query_info_nb
FNDA:0,_RNvNtCsyULe2umut5_4pmix9query_log19log_callback_bridge
FNDA:0,_RNvNtCsyULe2umut5_4pmix9query_log21query_callback_bridge
FNDA:0,_RNvNtCsyULe2umut5_4pmix9query_log8log_data
FNDA:0,_RNvXNtCsyULe2umut5_4pmix9query_logNtB2_9PmixQueryNtNtCs27Vx93FoQ6z_4core3fmt5Debug3fmt
FNDA:0,_RNvXs1_NtCsyULe2umut5_4pmix9query_logNtB5_12QueryResultsNtNtCs27Vx93FoQ6z_4core3fmt5Debug3fmt
FNF:29
FNH:14
DA:72,0
DA:73,0
DA:74,0
DA:75,0
DA:76,0
DA:89,2
DA:90,2
DA:91,1
DA:92,1
DA:95,1
DA:98,1
DA:100,1
DA:101,0
DA:102,1
DA:105,1
DA:106,1
DA:107,1
DA:109,0
DA:110,0
DA:111,0
DA:112,0
DA:113,0
DA:119,1
DA:120,1
DA:121,1
DA:123,1
DA:124,0
DA:125,0
DA:126,0
DA:127,0
DA:128,1
DA:130,1
DA:131,1
DA:132,1
DA:134,1
DA:135,1
DA:136,1
DA:137,1
DA:138,1
DA:139,2
DA:146,1
DA:147,1
DA:150,1
DA:151,1
DA:152,1
DA:153,1
DA:154,1
DA:156,1
DA:162,0
DA:163,0
DA:164,0
DA:165,0
DA:166,0
DA:167,0
DA:168,0
DA:169,0
DA:170,0
DA:171,0
DA:172,0
DA:173,0
DA:174,0
DA:178,1
DA:179,1
DA:189,1
DA:191,1
DA:192,1
DA:195,1
DA:196,1
DA:197,1
DA:198,1
DA:199,1
DA:203,1
DA:204,1
DA:206,0
DA:210,1
DA:227,0
DA:228,0
DA:229,0
DA:230,0
DA:231,0
DA:236,2
DA:237,2
DA:238,2
DA:241,2
DA:242,2
DA:243,2
DA:247,2
DA:248,2
DA:249,0
DA:250,0
DA:251,0
DA:252,0
DA:253,0
DA:254,0
DA:255,0
DA:256,2
DA:257,2
DA:285,0
DA:286,0
DA:287,0
DA:288,0
DA:290,0
DA:291,0
DA:292,0
DA:295,0
DA:296,0
DA:298,0
DA:304,0
DA:307,0
DA:310,0
DA:311,0
DA:312,0
DA:313,0
DA:314,0
DA:317,0
DA:318,0
DA:319,0
DA:320,0
DA:321,0
DA:322,0
DA:323,0
DA:325,0
DA:343,0
DA:346,0
DA:357,0
DA:358,0
DA:359,0
DA:360,0
DA:361,0
DA:362,0
DA:363,0
DA:364,0
DA:365,0
DA:366,0
DA:367,0
DA:370,0
DA:373,0
DA:374,0
DA:375,0
DA:377,0
DA:378,0
DA:381,0
DA:382,0
DA:383,0
DA:384,0
DA:385,0
DA:386,0
DA:390,0
DA:391,0
DA:392,0
DA:393,0
DA:394,0
DA:395,0
DA:397,0
DA:398,0
DA:414,0
DA:415,0
DA:416,0
DA:417,0
DA:418,0
DA:419,0
DA:420,0
DA:423,0
DA:424,0
DA:425,0
DA:426,0
DA:428,0
DA:429,0
DA:430,0
DA:431,0
DA:434,0
DA:436,0
DA:437,0
DA:438,0
DA:440,0
DA:447,0
DA:450,0
DA:451,0
DA:452,0
DA:455,0
DA:456,0
DA:457,0
DA:459,0
DA:501,0
DA:502,0
DA:503,0
DA:507,0
DA:508,0
DA:509,0
DA:510,0
DA:512,0
DA:514,0
DA:515,0
DA:517,0
DA:520,0
DA:529,0
DA:532,0
DA:533,0
DA:534,0
DA:536,0
DA:538,0
DA:556,0
DA:559,0
DA:566,0
DA:567,0
DA:568,0
DA:569,0
DA:572,0
DA:575,0
DA:576,0
DA:577,0
DA:579,0
DA:580,0
DA:583,0
DA:587,0
DA:588,0
DA:589,0
DA:606,0
DA:607,0
DA:608,0
DA:609,0
DA:610,0
DA:611,0
DA:612,0
DA:615,0
DA:616,0
DA:617,0
DA:618,0
DA:620,0
DA:621,0
DA:622,0
DA:623,0
DA:626,0
DA:629,0
DA:630,0
DA:631,0
DA:632,0
DA:634,0
DA:636,0
DA:637,0
DA:639,0
DA:642,0
DA:653,0
DA:654,0
DA:655,0
DA:656,0
DA:657,0
DA:658,0
DA:659,0
DA:663,0
DA:664,0
DA:665,0
DA:668,0
DA:669,0
DA:670,0
DA:672,0
DA:679,1
DA:680,1
DA:681,1
DA:682,1
DA:685,1
DA:686,1
DA:687,1
DA:688,1
DA:691,1
DA:692,1
DA:693,1
DA:694,1
DA:695,1
DA:696,1
DA:697,1
DA:698,1
DA:701,1
DA:702,1
DA:703,1
DA:704,1
DA:705,1
DA:706,1
DA:707,1
DA:708,1
DA:711,1
DA:714,0
DA:716,1
DA:717,1
DA:718,1
DA:721,1
DA:724,0
DA:726,1
DA:727,1
DA:728,1
BRF:0
BRH:0
LF:292
LH:90
end_of_record
SF:/home/bzf/projects/pmix-rs/src/security.rs
FN:347,_RNCNvNtCsyULe2umut5_4pmix8security14CREDENTIAL_SEQ0B5_
FN:686,_RNCNvNtCsyULe2umut5_4pmix8security14VALIDATION_SEQ0B5_
FN:344,_RNCNvNtCsyULe2umut5_4pmix8security19CREDENTIAL_REGISTRY0B5_
FN:683,_RNCNvNtCsyULe2umut5_4pmix8security19VALIDATION_CRED_MAP0B5_
FN:677,_RNCNvNtCsyULe2umut5_4pmix8security19VALIDATION_REGISTRY0B5_
FN:60,_RNvMNtCsyULe2umut5_4pmix8securityNtB2_14PmixCredential10from_bytes
FN:158,_RNvMNtCsyULe2umut5_4pmix8securityNtB2_14PmixCredential3len
FN:72,_RNvMNtCsyULe2umut5_4pmix8securityNtB2_14PmixCredential5empty
FN:140,_RNvMNtCsyULe2umut5_4pmix8securityNtB2_14PmixCredential6as_raw
FN:77,_RNvMNtCsyULe2umut5_4pmix8securityNtB2_14PmixCredential8as_bytes
FN:67,_RNvMNtCsyULe2umut5_4pmix8securityNtB2_14PmixCredential8from_vec
FN:153,_RNvMNtCsyULe2umut5_4pmix8securityNtB2_14PmixCredential8is_empty
FN:554,_RNvMs0_NtCsyULe2umut5_4pmix8securityNtB5_17ValidationResults3len
FN:546,_RNvMs0_NtCsyULe2umut5_4pmix8securityNtB5_17ValidationResults5empty
FN:559,_RNvMs0_NtCsyULe2umut5_4pmix8securityNtB5_17ValidationResults8is_empty
FN:873,_RNvNtNtCsyULe2umut5_4pmix8security5testss_21test_credential_empty
FN:881,_RNvNtNtCsyULe2umut5_4pmix8security5testss_22test_credential_as_raw
FN:865,_RNvNtNtCsyULe2umut5_4pmix8security5testss_24test_credential_from_vec
FN:857,_RNvNtNtCsyULe2umut5_4pmix8security5testss_26test_credential_from_bytes
FN:888,_RNvNtNtCsyULe2umut5_4pmix8security5testss_29test_validation_results_empty
FN:565,_RNvXs1_NtCsyULe2umut5_4pmix8securityNtB5_17ValidationResultsNtNtNtCs27Vx93FoQ6z_4core3ops4drop4Drop4drop
FN:117,_RNvMNtCsyULe2umut5_4pmix8securityNtB2_14PmixCredential10free_c_ptr
FN:86,_RNvMNtCsyULe2umut5_4pmix8securityNtB2_14PmixCredential12as_c_mut_ptr
FN:331,_RNvMs_NtCsyULe2umut5_4pmix8securityNtB4_17CredentialResults3len
FN:326,_RNvMs_NtCsyULe2umut5_4pmix8securityNtB4_17CredentialResults4info
FN:336,_RNvMs_NtCsyULe2umut5_4pmix8securityNtB4_17CredentialResults8is_empty
FN:236,_RNvNtCsyULe2umut5_4pmix8security14get_credential
FN:477,_RNvNtCsyULe2umut5_4pmix8security17get_credential_nb
FN:602,_RNvNtCsyULe2umut5_4pmix8security19validate_credential
FN:786,_RNvNtCsyULe2umut5_4pmix8security22validate_credential_nb
FN:366,_RNvNtCsyULe2umut5_4pmix8security26credential_callback_bridge
FN:699,_RNvNtCsyULe2umut5_4pmix8security26validation_callback_bridge
FN:182,_RNvNtCsyULe2umut5_4pmix8security30copy_and_free_pmix_byte_object
FNDA:0,_RNCNvNtCsyULe2umut5_4pmix8security14CREDENTIAL_SEQ0B5_
FNDA:0,_RNCNvNtCsyULe2umut5_4pmix8security14VALIDATION_SEQ0B5_
FNDA:0,_RNCNvNtCsyULe2umut5_4pmix8security19CREDENTIAL_REGISTRY0B5_
FNDA:0,_RNCNvNtCsyULe2umut5_4pmix8security19VALIDATION_CRED_MAP0B5_
FNDA:0,_RNCNvNtCsyULe2umut5_4pmix8security19VALIDATION_REGISTRY0B5_
FNDA:2,_RNvMNtCsyULe2umut5_4pmix8securityNtB2_14PmixCredential10from_bytes
FNDA:3,_RNvMNtCsyULe2umut5_4pmix8securityNtB2_14PmixCredential3len
FNDA:1,_RNvMNtCsyULe2umut5_4pmix8securityNtB2_14PmixCredential5empty
FNDA:1,_RNvMNtCsyULe2umut5_4pmix8securityNtB2_14PmixCredential6as_raw
FNDA:3,_RNvMNtCsyULe2umut5_4pmix8securityNtB2_14PmixCredential8as_bytes
FNDA:1,_RNvMNtCsyULe2umut5_4pmix8securityNtB2_14PmixCredential8from_vec
FNDA:2,_RNvMNtCsyULe2umut5_4pmix8securityNtB2_14PmixCredential8is_empty
FNDA:1,_RNvMs0_NtCsyULe2umut5_4pmix8securityNtB5_17ValidationResults3len
FNDA:1,_RNvMs0_NtCsyULe2umut5_4pmix8securityNtB5_17ValidationResults5empty
FNDA:1,_RNvMs0_NtCsyULe2umut5_4pmix8securityNtB5_17ValidationResults8is_empty
FNDA:1,_RNvNtNtCsyULe2umut5_4pmix8security5testss_21test_credential_empty
FNDA:1,_RNvNtNtCsyULe2umut5_4pmix8security5testss_22test_credential_as_raw
FNDA:1,_RNvNtNtCsyULe2umut5_4pmix8security5testss_24test_credential_from_vec
FNDA:1,_RNvNtNtCsyULe2umut5_4pmix8security5testss_26test_credential_from_bytes
FNDA:1,_RNvNtNtCsyULe2umut5_4pmix8security5testss_29test_validation_results_empty
FNDA:1,_RNvXs1_NtCsyULe2umut5_4pmix8securityNtB5_17ValidationResultsNtNtNtCs27Vx93FoQ6z_4core3ops4drop4Drop4drop
FNDA:0,_RNvMNtCsyULe2umut5_4pmix8securityNtB2_14PmixCredential10free_c_ptr
FNDA:0,_RNvMNtCsyULe2umut5_4pmix8securityNtB2_14PmixCredential12as_c_mut_ptr
FNDA:0,_RNvMs_NtCsyULe2umut5_4pmix8securityNtB4_17CredentialResults3len
FNDA:0,_RNvMs_NtCsyULe2umut5_4pmix8securityNtB4_17CredentialResults4info
FNDA:0,_RNvMs_NtCsyULe2umut5_4pmix8securityNtB4_17CredentialResults8is_empty
FNDA:0,_RNvNtCsyULe2umut5_4pmix8security14get_credential
FNDA:0,_RNvNtCsyULe2umut5_4pmix8security17get_credential_nb
FNDA:0,_RNvNtCsyULe2umut5_4pmix8security19validate_credential
FNDA:0,_RNvNtCsyULe2umut5_4pmix8security22validate_credential_nb
FNDA:0,_RNvNtCsyULe2umut5_4pmix8security26credential_callback_bridge
FNDA:0,_RNvNtCsyULe2umut5_4pmix8security26validation_callback_bridge
FNDA:0,_RNvNtCsyULe2umut5_4pmix8security30copy_and_free_pmix_byte_object
FNF:33
FNH:16
DA:60,2
DA:61,2
DA:62,2
DA:63,2
DA:64,2
DA:67,1
DA:68,1
DA:69,1
DA:72,1
DA:73,1
DA:74,1
DA:77,3
DA:78,3
DA:79,3
DA:86,0
DA:87,0
DA:88,0
DA:92,0
DA:93,0
DA:94,0
DA:95,0
DA:96,0
DA:97,0
DA:98,0
DA:99,0
DA:100,0
DA:101,0
DA:105,0
DA:106,0
DA:107,0
DA:108,0
DA:109,0
DA:110,0
DA:117,0
DA:118,0
DA:119,0
DA:121,0
DA:122,0
DA:123,0
DA:124,0
DA:125,0
DA:126,0
DA:128,0
DA:129,0
DA:140,1
DA:141,1
DA:142,1
DA:143,0
DA:145,1
DA:147,1
DA:149,1
DA:150,1
DA:153,2
DA:154,2
DA:155,2
DA:158,3
DA:159,3
DA:160,3
DA:182,0
DA:183,0
DA:184,0
DA:186,0
DA:187,0
DA:190,0
DA:193,0
DA:194,0
DA:195,0
DA:196,0
DA:197,0
DA:199,0
DA:200,0
DA:201,0
DA:202,0
DA:203,0
DA:236,0
DA:237,0
DA:241,0
DA:242,0
DA:243,0
DA:244,0
DA:245,0
DA:248,0
DA:249,0
DA:250,0
DA:252,0
DA:255,0
DA:263,0
DA:266,0
DA:268,0
DA:273,0
DA:274,0
DA:281,0
DA:282,0
DA:283,0
DA:284,0
DA:287,0
DA:289,0
DA:326,0
DA:327,0
DA:328,0
DA:331,0
DA:332,0
DA:333,0
DA:336,0
DA:337,0
DA:338,0
DA:344,0
DA:347,0
DA:366,0
DA:367,0
DA:368,0
DA:369,0
DA:370,0
DA:371,0
DA:372,0
DA:373,0
DA:375,0
DA:376,0
DA:377,0
DA:378,0
DA:379,0
DA:380,0
DA:381,0
DA:382,0
DA:383,0
DA:384,0
DA:385,0
DA:386,0
DA:387,0
DA:390,0
DA:393,0
DA:394,0
DA:395,0
DA:397,0
DA:398,0
DA:401,0
DA:402,0
DA:403,0
DA:404,0
DA:405,0
DA:406,0
DA:407,0
DA:408,0
DA:409,0
DA:410,0
DA:411,0
DA:415,0
DA:418,0
DA:420,0
DA:421,0
DA:424,0
DA:428,0
DA:433,0
DA:434,0
DA:435,0
DA:438,0
DA:439,0
DA:440,0
DA:441,0
DA:442,0
DA:443,0
DA:444,0
DA:445,0
DA:448,0
DA:449,0
DA:450,0
DA:451,0
DA:452,0
DA:453,0
DA:456,0
DA:459,0
DA:460,0
DA:477,0
DA:478,0
DA:479,0
DA:480,0
DA:482,0
DA:483,0
DA:484,0
DA:485,0
DA:487,0
DA:488,0
DA:489,0
DA:490,0
DA:493,0
DA:495,0
DA:498,0
DA:499,0
DA:500,0
DA:502,0
DA:505,0
DA:513,0
DA:516,0
DA:517,0
DA:518,0
DA:521,0
DA:522,0
DA:523,0
DA:525,0
DA:546,1
DA:547,1
DA:548,1
DA:549,1
DA:550,1
DA:551,1
DA:554,1
DA:555,1
DA:556,1
DA:559,1
DA:560,1
DA:561,1
DA:565,1
DA:566,1
DA:567,0
DA:568,0
DA:569,0
DA:570,0
DA:571,0
DA:572,0
DA:573,0
DA:574,1
DA:575,1
DA:602,0
DA:603,0
DA:604,0
DA:605,0
DA:606,0
DA:609,0
DA:610,0
DA:611,0
DA:613,0
DA:617,0
DA:619,0
DA:620,0
DA:622,0
DA:628,0
DA:629,0
DA:630,0
DA:631,0
DA:632,0
DA:633,0
DA:638,0
DA:639,0
DA:640,0
DA:642,0
DA:644,0
DA:645,0
DA:646,0
DA:647,0
DA:648,0
DA:651,0
DA:652,0
DA:653,0
DA:654,0
DA:655,0
DA:656,0
DA:658,0
DA:677,0
DA:683,0
DA:686,0
DA:699,0
DA:700,0
DA:701,0
DA:702,0
DA:703,0
DA:704,0
DA:705,0
DA:706,0
DA:707,0
DA:708,0
DA:709,0
DA:710,0
DA:711,0
DA:712,0
DA:715,0
DA:718,0
DA:719,0
DA:720,0
DA:722,0
DA:723,0
DA:726,0
DA:727,0
DA:728,0
DA:729,0
DA:730,0
DA:732,0
DA:733,0
DA:734,0
DA:735,0
DA:736,0
DA:737,0
DA:738,0
DA:744,0
DA:745,0
DA:746,0
DA:747,0
DA:748,0
DA:749,0
DA:752,0
DA:755,0
DA:756,0
DA:757,0
DA:758,0
DA:759,0
DA:761,0
DA:762,0
DA:763,0
DA:764,0
DA:767,0
DA:768,0
DA:786,0
DA:787,0
DA:788,0
DA:789,0
DA:790,0
DA:792,0
DA:793,0
DA:794,0
DA:795,0
DA:801,0
DA:802,0
DA:803,0
DA:804,0
DA:805,0
DA:806,0
DA:807,0
DA:808,0
DA:809,0
DA:812,0
DA:814,0
DA:817,0
DA:818,0
DA:819,0
DA:821,0
DA:824,0
DA:826,0
DA:827,0
DA:828,0
DA:829,0
DA:830,0
DA:831,0
DA:835,0
DA:836,0
DA:837,0
DA:840,0
DA:841,0
DA:842,0
DA:843,0
DA:844,0
DA:845,0
DA:846,0
DA:847,0
DA:848,0
DA:850,0
DA:857,1
DA:858,1
DA:859,1
DA:860,1
DA:861,1
DA:862,1
DA:865,1
DA:866,1
DA:867,1
DA:868,1
DA:869,1
DA:870,1
DA:873,1
DA:874,1
DA:875,1
DA:876,1
DA:877,1
DA:878,1
DA:881,1
DA:882,1
DA:883,1
DA:884,1
DA:885,1
DA:888,1
DA:889,1
DA:890,1
DA:891,1
DA:892,1
BRF:0
BRH:0
LF:382
LH:71
end_of_record
SF:/home/bzf/projects/pmix-rs/src/server.rs
FN:4051,_RNvNtNtCsyULe2umut5_4pmix6server5testss_26test_server_module_default
FN:4059,_RNvNtNtCsyULe2umut5_4pmix6server5testss_34test_server_module_all_fields_none
FN:4079,_RNvNtNtCsyULe2umut5_4pmix6server5testss_36test_server_module_additional_fields
FN:2074,_RNCNvNtCsyULe2umut5_4pmix6server15IOF_DELIVER_SEQ0B5_
FN:1394,_RNCNvNtCsyULe2umut5_4pmix6server18DMODEX_REQUEST_SEQ0B5_
FN:854,_RNCNvNtCsyULe2umut5_4pmix6server19REGISTER_CLIENT_SEQ0B5_
FN:2071,_RNCNvNtCsyULe2umut5_4pmix6server20IOF_DELIVER_REGISTRY0B5_
FN:2323,_RNCNvNtCsyULe2umut5_4pmix6server21COLLECT_INVENTORY_SEQ0B5_
FN:2543,_RNCNvNtCsyULe2umut5_4pmix6server21DELIVER_INVENTORY_SEQ0B5_
FN:1026,_RNCNvNtCsyULe2umut5_4pmix6server21DEREGISTER_CLIENT_SEQ0B5_
FN:478,_RNCNvNtCsyULe2umut5_4pmix6server21REGISTER_NS_SPACE_SEQ0B5_
FN:1596,_RNCNvNtCsyULe2umut5_4pmix6server21SETUP_APPLICATION_SEQ0B5_
FN:3079,_RNCNvNtCsyULe2umut5_4pmix6server22REGISTER_RESOURCES_SEQ0B5_
FN:693,_RNCNvNtCsyULe2umut5_4pmix6server23DEREGISTER_NS_SPACE_SEQ0B5_
FN:1391,_RNCNvNtCsyULe2umut5_4pmix6server23DMODEX_REQUEST_REGISTRY0B5_
FN:1870,_RNCNvNtCsyULe2umut5_4pmix6server23SETUP_LOCAL_SUPPORT_SEQ0B5_
FN:3241,_RNCNvNtCsyULe2umut5_4pmix6server24DEREGISTER_RESOURCES_SEQ0B5_
FN:851,_RNCNvNtCsyULe2umut5_4pmix6server24REGISTER_CLIENT_REGISTRY0B5_
FN:2330,_RNCNvNtCsyULe2umut5_4pmix6server26COLLECT_INVENTORY_REGISTRY0B5_
FN:2550,_RNCNvNtCsyULe2umut5_4pmix6server26DELIVER_INVENTORY_REGISTRY0B5_
FN:1023,_RNCNvNtCsyULe2umut5_4pmix6server26DEREGISTER_CLIENT_REGISTRY0B5_
FN:475,_RNCNvNtCsyULe2umut5_4pmix6server26REGISTER_NS_SPACE_REGISTRY0B5_
FN:1593,_RNCNvNtCsyULe2umut5_4pmix6server26SETUP_APPLICATION_REGISTRY0B5_
FN:3076,_RNCNvNtCsyULe2umut5_4pmix6server27REGISTER_RESOURCES_REGISTRY0B5_
FN:690,_RNCNvNtCsyULe2umut5_4pmix6server28DEREGISTER_NS_SPACE_REGISTRY0B5_
FN:1867,_RNCNvNtCsyULe2umut5_4pmix6server28SETUP_LOCAL_SUPPORT_REGISTRY0B5_
FN:3238,_RNCNvNtCsyULe2umut5_4pmix6server29DEREGISTER_RESOURCES_REGISTRY0B5_
FN:3630,_RINvMs1_NtCsyULe2umut5_4pmix6serverNtB6_22FenceNbCallbackWrapper3newpEB8_
FN:3548,_RNCNvNtCsyULe2umut5_4pmix6server13server_delete0B5_
FN:259,_RNvMNtCsyULe2umut5_4pmix6serverNtB2_16PmixServerModule8as_c_ptr
FN:2298,_RNvMs_NtCsyULe2umut5_4pmix6serverNtB4_23CollectInventoryResults3len
FN:2303,_RNvMs_NtCsyULe2umut5_4pmix6serverNtB4_23CollectInventoryResults8is_empty
FN:328,_RNvNtCsyULe2umut5_4pmix6server11server_init
FN:3590,_RNvNtCsyULe2umut5_4pmix6server12server_fence
FN:3957,_RNvNtCsyULe2umut5_4pmix6server12server_spawn
FN:3542,_RNvNtCsyULe2umut5_4pmix6server13server_delete
FN:3454,_RNvNtCsyULe2umut5_4pmix6server13server_lookup
FN:1346,_RNvNtCsyULe2umut5_4pmix6server14pmix_argv_free
FN:3723,_RNvNtCsyULe2umut5_4pmix6server14server_connect
FN:3408,_RNvNtCsyULe2umut5_4pmix6server14server_publish
FN:3660,_RNvNtCsyULe2umut5_4pmix6server15server_fence_nb
FN:443,_RNvNtCsyULe2umut5_4pmix6server15server_finalize
FN:3973,_RNvNtCsyULe2umut5_4pmix6server15server_spawn_nb
FN:3765,_RNvNtCsyULe2umut5_4pmix6server17server_connect_nb
FN:3840,_RNvNtCsyULe2umut5_4pmix6server17server_disconnect
FN:1222,_RNvNtCsyULe2umut5_4pmix6server17server_setup_fork
FN:2188,_RNvNtCsyULe2umut5_4pmix6server18server_iof_deliver
FN:386,_RNvNtCsyULe2umut5_4pmix6server19server_init_minimal
FN:3880,_RNvNtCsyULe2umut5_4pmix6server20server_disconnect_nb
FN:670,_RNvNtCsyULe2umut5_4pmix6server21is_server_initialized
FN:1514,_RNvNtCsyULe2umut5_4pmix6server21server_dmodex_request
FN:4039,_RNvNtCsyULe2umut5_4pmix6server21server_get_credential
FN:945,_RNvNtCsyULe2umut5_4pmix6server22server_register_client
FN:577,_RNvNtCsyULe2umut5_4pmix6server22server_register_nspace
FN:2447,_RNvNtCsyULe2umut5_4pmix6server24server_collect_inventory
FN:2649,_RNvNtCsyULe2umut5_4pmix6server24server_deliver_inventory
FN:1106,_RNvNtCsyULe2umut5_4pmix6server24server_deregister_client
FN:776,_RNvNtCsyULe2umut5_4pmix6server24server_deregister_nspace
FN:1773,_RNvNtCsyULe2umut5_4pmix6server24server_setup_application
FN:2935,_RNvNtCsyULe2umut5_4pmix6server25server_define_process_set
FN:3031,_RNvNtCsyULe2umut5_4pmix6server25server_delete_process_set
FN:3164,_RNvNtCsyULe2umut5_4pmix6server25server_register_resources
FN:1963,_RNvNtCsyULe2umut5_4pmix6server26server_setup_local_support
FN:2082,_RNvNtCsyULe2umut5_4pmix6server27iof_deliver_callback_bridge
FN:3329,_RNvNtCsyULe2umut5_4pmix6server27server_deregister_resources
FN:4004,_RNvNtCsyULe2umut5_4pmix6server28server_tool_attach_to_server
FN:2865,_RNvNtCsyULe2umut5_4pmix6server29server_generate_cpuset_string
FN:1405,_RNvNtCsyULe2umut5_4pmix6server30dmodex_request_callback_bridge
FN:861,_RNvNtCsyULe2umut5_4pmix6server31register_client_callback_bridge
FN:485,_RNvNtCsyULe2umut5_4pmix6server31register_nspace_callback_bridge
FN:2796,_RNvNtCsyULe2umut5_4pmix6server31server_generate_locality_string
FN:2338,_RNvNtCsyULe2umut5_4pmix6server33collect_inventory_callback_bridge
FN:2557,_RNvNtCsyULe2umut5_4pmix6server33deliver_inventory_callback_bridge
FN:1033,_RNvNtCsyULe2umut5_4pmix6server33deregister_client_callback_bridge
FN:700,_RNvNtCsyULe2umut5_4pmix6server33deregister_nspace_callback_bridge
FN:1608,_RNvNtCsyULe2umut5_4pmix6server33setup_application_callback_bridge
FN:3086,_RNvNtCsyULe2umut5_4pmix6server34register_resources_callback_bridge
FN:1877,_RNvNtCsyULe2umut5_4pmix6server35setup_local_support_callback_bridge
FN:3248,_RNvNtCsyULe2umut5_4pmix6server36deregister_resources_callback_bridge
FN:3667,_RNvNvNtCsyULe2umut5_4pmix6server15server_fence_nb24fence_nb_callback_bridge
FN:3777,_RNvNvNtCsyULe2umut5_4pmix6server17server_connect_nb26connect_nb_callback_bridge
FN:3892,_RNvNvNtCsyULe2umut5_4pmix6server20server_disconnect_nb29disconnect_nb_callback_bridge
FN:2309,_RNvXs0_NtCsyULe2umut5_4pmix6serverNtB5_23CollectInventoryResultsNtNtNtCs27Vx93FoQ6z_4core3ops4drop4Drop4drop
FNDA:1,_RNvNtNtCsyULe2umut5_4pmix6server5testss_26test_server_module_default
FNDA:1,_RNvNtNtCsyULe2umut5_4pmix6server5testss_34test_server_module_all_fields_none
FNDA:1,_RNvNtNtCsyULe2umut5_4pmix6server5testss_36test_server_module_additional_fields
FNDA:0,_RNCNvNtCsyULe2umut5_4pmix6server15IOF_DELIVER_SEQ0B5_
FNDA:0,_RNCNvNtCsyULe2umut5_4pmix6server18DMODEX_REQUEST_SEQ0B5_
FNDA:0,_RNCNvNtCsyULe2umut5_4pmix6server19REGISTER_CLIENT_SEQ0B5_
FNDA:0,_RNCNvNtCsyULe2umut5_4pmix6server20IOF_DELIVER_REGISTRY0B5_
FNDA:0,_RNCNvNtCsyULe2umut5_4pmix6server21COLLECT_INVENTORY_SEQ0B5_
FNDA:0,_RNCNvNtCsyULe2umut5_4pmix6server21DELIVER_INVENTORY_SEQ0B5_
FNDA:0,_RNCNvNtCsyULe2umut5_4pmix6server21DEREGISTER_CLIENT_SEQ0B5_
FNDA:0,_RNCNvNtCsyULe2umut5_4pmix6server21REGISTER_NS_SPACE_SEQ0B5_
FNDA:0,_RNCNvNtCsyULe2umut5_4pmix6server21SETUP_APPLICATION_SEQ0B5_
FNDA:0,_RNCNvNtCsyULe2umut5_4pmix6server22REGISTER_RESOURCES_SEQ0B5_
FNDA:0,_RNCNvNtCsyULe2umut5_4pmix6server23DEREGISTER_NS_SPACE_SEQ0B5_
FNDA:0,_RNCNvNtCsyULe2umut5_4pmix6server23DMODEX_REQUEST_REGISTRY0B5_
FNDA:0,_RNCNvNtCsyULe2umut5_4pmix6server23SETUP_LOCAL_SUPPORT_SEQ0B5_
FNDA:0,_RNCNvNtCsyULe2umut5_4pmix6server24DEREGISTER_RESOURCES_SEQ0B5_
FNDA:0,_RNCNvNtCsyULe2umut5_4pmix6server24REGISTER_CLIENT_REGISTRY0B5_
FNDA:0,_RNCNvNtCsyULe2umut5_4pmix6server26COLLECT_INVENTORY_REGISTRY0B5_
FNDA:0,_RNCNvNtCsyULe2umut5_4pmix6server26DELIVER_INVENTORY_REGISTRY0B5_
FNDA:0,_RNCNvNtCsyULe2umut5_4pmix6server26DEREGISTER_CLIENT_REGISTRY0B5_
FNDA:0,_RNCNvNtCsyULe2umut5_4pmix6server26REGISTER_NS_SPACE_REGISTRY0B5_
FNDA:0,_RNCNvNtCsyULe2umut5_4pmix6server26SETUP_APPLICATION_REGISTRY0B5_
FNDA:0,_RNCNvNtCsyULe2umut5_4pmix6server27REGISTER_RESOURCES_REGISTRY0B5_
FNDA:0,_RNCNvNtCsyULe2umut5_4pmix6server28DEREGISTER_NS_SPACE_REGISTRY0B5_
FNDA:0,_RNCNvNtCsyULe2umut5_4pmix6server28SETUP_LOCAL_SUPPORT_REGISTRY0B5_
FNDA:0,_RNCNvNtCsyULe2umut5_4pmix6server29DEREGISTER_RESOURCES_REGISTRY0B5_
FNDA:0,_RINvMs1_NtCsyULe2umut5_4pmix6serverNtB6_22FenceNbCallbackWrapper3newpEB8_
FNDA:0,_RNCNvNtCsyULe2umut5_4pmix6server13server_delete0B5_
FNDA:0,_RNvMNtCsyULe2umut5_4pmix6serverNtB2_16PmixServerModule8as_c_ptr
FNDA:0,_RNvMs_NtCsyULe2umut5_4pmix6serverNtB4_23CollectInventoryResults3len
FNDA:0,_RNvMs_NtCsyULe2umut5_4pmix6serverNtB4_23CollectInventoryResults8is_empty
FNDA:0,_RNvNtCsyULe2umut5_4pmix6server11server_init
FNDA:0,_RNvNtCsyULe2umut5_4pmix6server12server_fence
FNDA:0,_RNvNtCsyULe2umut5_4pmix6server12server_spawn
FNDA:0,_RNvNtCsyULe2umut5_4pmix6server13server_delete
FNDA:0,_RNvNtCsyULe2umut5_4pmix6server13server_lookup
FNDA:0,_RNvNtCsyULe2umut5_4pmix6server14pmix_argv_free
FNDA:0,_RNvNtCsyULe2umut5_4pmix6server14server_connect
FNDA:0,_RNvNtCsyULe2umut5_4pmix6server14server_publish
FNDA:0,_RNvNtCsyULe2umut5_4pmix6server15server_fence_nb
FNDA:0,_RNvNtCsyULe2umut5_4pmix6server15server_finalize
FNDA:0,_RNvNtCsyULe2umut5_4pmix6server15server_spawn_nb
FNDA:0,_RNvNtCsyULe2umut5_4pmix6server17server_connect_nb
FNDA:0,_RNvNtCsyULe2umut5_4pmix6server17server_disconnect
FNDA:0,_RNvNtCsyULe2umut5_4pmix6server17server_setup_fork
FNDA:0,_RNvNtCsyULe2umut5_4pmix6server18server_iof_deliver
FNDA:0,_RNvNtCsyULe2umut5_4pmix6server19server_init_minimal
FNDA:0,_RNvNtCsyULe2umut5_4pmix6server20server_disconnect_nb
FNDA:0,_RNvNtCsyULe2umut5_4pmix6server21is_server_initialized
FNDA:0,_RNvNtCsyULe2umut5_4pmix6server21server_dmodex_request
FNDA:0,_RNvNtCsyULe2umut5_4pmix6server21server_get_credential
FNDA:0,_RNvNtCsyULe2umut5_4pmix6server22server_register_client
FNDA:0,_RNvNtCsyULe2umut5_4pmix6server22server_register_nspace
FNDA:0,_RNvNtCsyULe2umut5_4pmix6server24server_collect_inventory
FNDA:0,_RNvNtCsyULe2umut5_4pmix6server24server_deliver_inventory
FNDA:0,_RNvNtCsyULe2umut5_4pmix6server24server_deregister_client
FNDA:0,_RNvNtCsyULe2umut5_4pmix6server24server_deregister_nspace
FNDA:0,_RNvNtCsyULe2umut5_4pmix6server24server_setup_application
FNDA:0,_RNvNtCsyULe2umut5_4pmix6server25server_define_process_set
FNDA:0,_RNvNtCsyULe2umut5_4pmix6server25server_delete_process_set
FNDA:0,_RNvNtCsyULe2umut5_4pmix6server25server_register_resources
FNDA:0,_RNvNtCsyULe2umut5_4pmix6server26server_setup_local_support
FNDA:0,_RNvNtCsyULe2umut5_4pmix6server27iof_deliver_callback_bridge
FNDA:0,_RNvNtCsyULe2umut5_4pmix6server27server_deregister_resources
FNDA:0,_RNvNtCsyULe2umut5_4pmix6server28server_tool_attach_to_server
FNDA:0,_RNvNtCsyULe2umut5_4pmix6server29server_generate_cpuset_string
FNDA:0,_RNvNtCsyULe2umut5_4pmix6server30dmodex_request_callback_bridge
FNDA:0,_RNvNtCsyULe2umut5_4pmix6server31register_client_callback_bridge
FNDA:0,_RNvNtCsyULe2umut5_4pmix6server31register_nspace_callback_bridge
FNDA:0,_RNvNtCsyULe2umut5_4pmix6server31server_generate_locality_string
FNDA:0,_RNvNtCsyULe2umut5_4pmix6server33collect_inventory_callback_bridge
FNDA:0,_RNvNtCsyULe2umut5_4pmix6server33deliver_inventory_callback_bridge
FNDA:0,_RNvNtCsyULe2umut5_4pmix6server33deregister_client_callback_bridge
FNDA:0,_RNvNtCsyULe2umut5_4pmix6server33deregister_nspace_callback_bridge
FNDA:0,_RNvNtCsyULe2umut5_4pmix6server33setup_application_callback_bridge
FNDA:0,_RNvNtCsyULe2umut5_4pmix6server34register_resources_callback_bridge
FNDA:0,_RNvNtCsyULe2umut5_4pmix6server35setup_local_support_callback_bridge
FNDA:0,_RNvNtCsyULe2umut5_4pmix6server36deregister_resources_callback_bridge
FNDA:0,_RNvNvNtCsyULe2umut5_4pmix6server15server_fence_nb24fence_nb_callback_bridge
FNDA:0,_RNvNvNtCsyULe2umut5_4pmix6server17server_connect_nb26connect_nb_callback_bridge
FNDA:0,_RNvNvNtCsyULe2umut5_4pmix6server20server_disconnect_nb29disconnect_nb_callback_bridge
FNDA:0,_RNvXs0_NtCsyULe2umut5_4pmix6serverNtB5_23CollectInventoryResultsNtNtNtCs27Vx93FoQ6z_4core3ops4drop4Drop4drop
FNF:83
FNH:3
DA:259,0
DA:260,0
DA:261,0
DA:328,0
DA:329,0
DA:330,0
DA:331,0
DA:332,0
DA:333,0
DA:334,0
DA:337,0
DA:338,0
DA:340,0
DA:342,0
DA:344,0
DA:353,0
DA:356,0
DA:357,0
DA:358,0
DA:360,0
DA:362,0
DA:386,0
DA:387,0
DA:388,0
DA:389,0
DA:390,0
DA:391,0
DA:394,0
DA:399,0
DA:402,0
DA:403,0
DA:404,0
DA:406,0
DA:408,0
DA:443,0
DA:444,0
DA:449,0
DA:452,0
DA:453,0
DA:454,0
DA:456,0
DA:458,0
DA:475,0
DA:478,0
DA:485,0
DA:486,0
DA:487,0
DA:488,0
DA:492,0
DA:495,0
DA:496,0
DA:497,0
DA:500,0
DA:501,0
DA:502,0
DA:506,0
DA:507,0
DA:508,0
DA:577,0
DA:578,0
DA:579,0
DA:580,0
DA:581,0
DA:582,0
DA:584,0
DA:585,0
DA:586,0
DA:590,0
DA:591,0
DA:592,0
DA:593,0
DA:595,0
DA:596,0
DA:597,0
DA:598,0
DA:601,0
DA:604,0
DA:605,0
DA:607,0
DA:611,0
DA:618,0
DA:619,0
DA:620,0
DA:621,0
DA:622,0
DA:623,0
DA:624,0
DA:628,0
DA:630,0
DA:632,0
DA:636,0
DA:637,0
DA:638,0
DA:640,0
DA:670,0
DA:673,0
DA:674,0
DA:690,0
DA:693,0
DA:700,0
DA:701,0
DA:702,0
DA:703,0
DA:707,0
DA:710,0
DA:711,0
DA:712,0
DA:715,0
DA:716,0
DA:717,0
DA:721,0
DA:722,0
DA:723,0
DA:776,0
DA:778,0
DA:779,0
DA:785,0
DA:786,0
DA:787,0
DA:788,0
DA:792,0
DA:793,0
DA:795,0
DA:796,0
DA:797,0
DA:798,0
DA:800,0
DA:801,0
DA:802,0
DA:803,0
DA:806,0
DA:814,0
DA:815,0
DA:816,0
DA:817,0
DA:818,0
DA:819,0
DA:820,0
DA:829,0
DA:830,0
DA:831,0
DA:834,0
DA:851,0
DA:854,0
DA:861,0
DA:862,0
DA:863,0
DA:864,0
DA:868,0
DA:871,0
DA:872,0
DA:873,0
DA:876,0
DA:877,0
DA:878,0
DA:882,0
DA:883,0
DA:884,0
DA:945,0
DA:946,0
DA:947,0
DA:948,0
DA:949,0
DA:950,0
DA:951,0
DA:953,0
DA:954,0
DA:955,0
DA:956,0
DA:958,0
DA:959,0
DA:960,0
DA:961,0
DA:964,0
DA:967,0
DA:970,0
DA:971,0
DA:972,0
DA:976,0
DA:984,0
DA:985,0
DA:986,0
DA:987,0
DA:988,0
DA:989,0
DA:990,0
DA:994,0
DA:996,0
DA:998,0
DA:1002,0
DA:1003,0
DA:1004,0
DA:1006,0
DA:1023,0
DA:1026,0
DA:1033,0
DA:1034,0
DA:1035,0
DA:1036,0
DA:1040,0
DA:1043,0
DA:1044,0
DA:1045,0
DA:1048,0
DA:1049,0
DA:1050,0
DA:1054,0
DA:1055,0
DA:1056,0
DA:1106,0
DA:1111,0
DA:1112,0
DA:1114,0
DA:1115,0
DA:1116,0
DA:1117,0
DA:1119,0
DA:1120,0
DA:1121,0
DA:1122,0
DA:1125,0
DA:1128,0
DA:1136,0
DA:1137,0
DA:1138,0
DA:1139,0
DA:1140,0
DA:1141,0
DA:1142,0
DA:1151,0
DA:1152,0
DA:1153,0
DA:1154,0
DA:1157,0
DA:1222,0
DA:1224,0
DA:1230,0
DA:1233,0
DA:1234,0
DA:1236,0
DA:1239,0
DA:1240,0
DA:1241,0
DA:1243,0
DA:1244,0
DA:1245,0
DA:1247,0
DA:1248,0
DA:1249,0
DA:1253,0
DA:1254,0
DA:1255,0
DA:1261,0
DA:1262,0
DA:1263,0
DA:1264,0
DA:1265,0
DA:1267,0
DA:1269,0
DA:1273,0
DA:1274,0
DA:1275,0
DA:1278,0
DA:1285,0
DA:1288,0
DA:1290,0
DA:1295,0
DA:1296,0
DA:1297,0
DA:1299,0
DA:1300,0
DA:1304,0
DA:1305,0
DA:1306,0
DA:1307,0
DA:1309,0
DA:1310,0
DA:1311,0
DA:1312,0
DA:1314,0
DA:1315,0
DA:1316,0
DA:1317,0
DA:1318,0
DA:1320,0
DA:1321,0
DA:1328,0
DA:1329,0
DA:1330,0
DA:1332,0
DA:1333,0
DA:1346,0
DA:1347,0
DA:1348,0
DA:1349,0
DA:1350,0
DA:1352,0
DA:1353,0
DA:1354,0
DA:1355,0
DA:1356,0
DA:1357,0
DA:1358,0
DA:1359,0
DA:1361,0
DA:1362,0
DA:1363,0
DA:1364,0
DA:1391,0
DA:1394,0
DA:1405,0
DA:1406,0
DA:1407,0
DA:1408,0
DA:1409,0
DA:1410,0
DA:1411,0
DA:1412,0
DA:1413,0
DA:1417,0
DA:1422,0
DA:1425,0
DA:1427,0
DA:1431,0
DA:1432,0
DA:1433,0
DA:1436,0
DA:1437,0
DA:1438,0
DA:1442,0
DA:1443,0
DA:1444,0
DA:1514,0
DA:1515,0
DA:1516,0
DA:1517,0
DA:1519,0
DA:1520,0
DA:1521,0
DA:1522,0
DA:1524,0
DA:1525,0
DA:1526,0
DA:1527,0
DA:1532,0
DA:1535,0
DA:1538,0
DA:1547,0
DA:1550,0
DA:1552,0
DA:1554,0
DA:1558,0
DA:1559,0
DA:1560,0
DA:1562,0
DA:1593,0
DA:1596,0
DA:1608,0
DA:1609,0
DA:1610,0
DA:1611,0
DA:1612,0
DA:1613,0
DA:1614,0
DA:1615,0
DA:1616,0
DA:1617,0
DA:1618,0
DA:1622,0
DA:1631,0
DA:1635,0
DA:1636,0
DA:1637,0
DA:1638,0
DA:1639,0
DA:1640,0
DA:1643,0
DA:1644,0
DA:1647,0
DA:1648,0
DA:1649,0
DA:1650,0
DA:1652,0
DA:1655,0
DA:1656,0
DA:1657,0
DA:1658,0
DA:1659,0
DA:1660,0
DA:1661,0
DA:1662,0
DA:1663,0
DA:1664,0
DA:1665,0
DA:1666,0
DA:1667,0
DA:1668,0
DA:1669,0
DA:1670,0
DA:1671,0
DA:1672,0
DA:1674,0
DA:1676,0
DA:1679,0
DA:1684,0
DA:1685,0
DA:1686,0
DA:1687,0
DA:1688,0
DA:1691,0
DA:1692,0
DA:1693,0
DA:1696,0
DA:1697,0
DA:1698,0
DA:1702,0
DA:1703,0
DA:1704,0
DA:1773,0
DA:1774,0
DA:1775,0
DA:1776,0
DA:1777,0
DA:1779,0
DA:1780,0
DA:1784,0
DA:1785,0
DA:1790,0
DA:1791,0
DA:1792,0
DA:1793,0
DA:1795,0
DA:1796,0
DA:1797,0
DA:1798,0
DA:1803,0
DA:1806,0
DA:1807,0
DA:1809,0
DA:1811,0
DA:1814,0
DA:1826,0
DA:1827,0
DA:1828,0
DA:1829,0
DA:1830,0
DA:1831,0
DA:1835,0
DA:1837,0
DA:1839,0
DA:1843,0
DA:1844,0
DA:1845,0
DA:1847,0
DA:1867,0
DA:1870,0
DA:1877,0
DA:1878,0
DA:1879,0
DA:1880,0
DA:1884,0
DA:1887,0
DA:1888,0
DA:1889,0
DA:1892,0
DA:1893,0
DA:1894,0
DA:1898,0
DA:1899,0
DA:1900,0
DA:1963,0
DA:1964,0
DA:1965,0
DA:1966,0
DA:1967,0
DA:1969,0
DA:1970,0
DA:1973,0
DA:1974,0
DA:1979,0
DA:1980,0
DA:1981,0
DA:1982,0
DA:1984,0
DA:1985,0
DA:1986,0
DA:1987,0
DA:1992,0
DA:1995,0
DA:1996,0
DA:1998,0
DA:2002,0
DA:2013,0
DA:2014,0
DA:2015,0
DA:2016,0
DA:2017,0
DA:2018,0
DA:2022,0
DA:2024,0
DA:2028,0
DA:2030,0
DA:2031,0
DA:2033,0
DA:2036,0
DA:2041,0
DA:2042,0
DA:2043,0
DA:2045,0
DA:2071,0
DA:2074,0
DA:2082,0
DA:2083,0
DA:2084,0
DA:2085,0
DA:2089,0
DA:2092,0
DA:2093,0
DA:2094,0
DA:2097,0
DA:2098,0
DA:2099,0
DA:2103,0
DA:2104,0
DA:2105,0
DA:2188,0
DA:2189,0
DA:2190,0
DA:2191,0
DA:2192,0
DA:2193,0
DA:2194,0
DA:2196,0
DA:2197,0
DA:2198,0
DA:2199,0
DA:2201,0
DA:2202,0
DA:2203,0
DA:2204,0
DA:2209,0
DA:2212,0
DA:2215,0
DA:2216,0
DA:2219,0
DA:2220,0
DA:2222,0
DA:2226,0
DA:2242,0
DA:2243,0
DA:2244,0
DA:2245,0
DA:2246,0
DA:2247,0
DA:2248,0
DA:2249,0
DA:2253,0
DA:2255,0
DA:2257,0
DA:2261,0
DA:2262,0
DA:2263,0
DA:2265,0
DA:2298,0
DA:2299,0
DA:2300,0
DA:2303,0
DA:2304,0
DA:2305,0
DA:2309,0
DA:2310,0
DA:2311,0
DA:2312,0
DA:2313,0
DA:2314,0
DA:2315,0
DA:2316,0
DA:2317,0
DA:2318,0
DA:2319,0
DA:2323,0
DA:2330,0
DA:2338,0
DA:2339,0
DA:2340,0
DA:2341,0
DA:2342,0
DA:2343,0
DA:2344,0
DA:2345,0
DA:2346,0
DA:2347,0
DA:2348,0
DA:2352,0
DA:2355,0
DA:2356,0
DA:2357,0
DA:2359,0
DA:2360,0
DA:2363,0
DA:2364,0
DA:2365,0
DA:2366,0
DA:2367,0
DA:2368,0
DA:2372,0
DA:2373,0
DA:2374,0
DA:2375,0
DA:2376,0
DA:2377,0
DA:2379,0
DA:2380,0
DA:2447,0
DA:2448,0
DA:2449,0
DA:2450,0
DA:2452,0
DA:2453,0
DA:2454,0
DA:2455,0
DA:2460,0
DA:2462,0
DA:2463,0
DA:2464,0
DA:2465,0
DA:2468,0
DA:2469,0
DA:2471,0
DA:2474,0
DA:2487,0
DA:2488,0
DA:2489,0
DA:2490,0
DA:2491,0
DA:2495,0
DA:2497,0
DA:2499,0
DA:2502,0
DA:2503,0
DA:2504,0
DA:2506,0
DA:2543,0
DA:2550,0
DA:2557,0
DA:2558,0
DA:2559,0
DA:2560,0
DA:2564,0
DA:2567,0
DA:2568,0
DA:2569,0
DA:2571,0
DA:2572,0
DA:2573,0
DA:2577,0
DA:2578,0
DA:2579,0
DA:2649,0
DA:2650,0
DA:2651,0
DA:2652,0
DA:2653,0
DA:2655,0
DA:2656,0
DA:2657,0
DA:2658,0
DA:2659,0
DA:2664,0
DA:2666,0
DA:2667,0
DA:2668,0
DA:2669,0
DA:2672,0
DA:2673,0
DA:2675,0
DA:2679,0
DA:2680,0
DA:2682,0
DA:2685,0
DA:2700,0
DA:2701,0
DA:2702,0
DA:2703,0
DA:2704,0
DA:2705,0
DA:2706,0
DA:2710,0
DA:2712,0
DA:2714,0
DA:2717,0
DA:2718,0
DA:2719,0
DA:2726,0
DA:2727,0
DA:2729,0
DA:2733,0
DA:2734,0
DA:2736,0
DA:2739,0
DA:2748,0
DA:2749,0
DA:2750,0
DA:2751,0
DA:2752,0
DA:2753,0
DA:2754,0
DA:2758,0
DA:2760,0
DA:2761,0
DA:2763,0
DA:2766,0
DA:2796,0
DA:2797,0
DA:2798,0
DA:2799,0
DA:2801,0
DA:2803,0
DA:2810,0
DA:2813,0
DA:2815,0
DA:2816,0
DA:2817,0
DA:2821,0
DA:2822,0
DA:2823,0
DA:2824,0
DA:2825,0
DA:2828,0
DA:2829,0
DA:2832,0
DA:2833,0
DA:2865,0
DA:2866,0
DA:2867,0
DA:2868,0
DA:2870,0
DA:2872,0
DA:2879,0
DA:2882,0
DA:2884,0
DA:2885,0
DA:2886,0
DA:2890,0
DA:2891,0
DA:2892,0
DA:2893,0
DA:2894,0
DA:2895,0
DA:2896,0
DA:2899,0
DA:2900,0
DA:2903,0
DA:2904,0
DA:2935,0
DA:2937,0
DA:2938,0
DA:2939,0
DA:2945,0
DA:2946,0
DA:2947,0
DA:2951,0
DA:2952,0
DA:2954,0
DA:2955,0
DA:2956,0
DA:2958,0
DA:2959,0
DA:2960,0
DA:2961,0
DA:2964,0
DA:2972,0
DA:2975,0
DA:2976,0
DA:2977,0
DA:2978,0
DA:2979,0
DA:2980,0
DA:2982,0
DA:2987,0
DA:2992,0
DA:2995,0
DA:2997,0
DA:2998,0
DA:3000,0
DA:3002,0
DA:3031,0
DA:3033,0
DA:3034,0
DA:3035,0
DA:3041,0
DA:3048,0
DA:3051,0
DA:3053,0
DA:3054,0
DA:3056,0
DA:3058,0
DA:3076,0
DA:3079,0
DA:3086,0
DA:3087,0
DA:3088,0
DA:3089,0
DA:3093,0
DA:3096,0
DA:3097,0
DA:3098,0
DA:3101,0
DA:3102,0
DA:3103,0
DA:3107,0
DA:3108,0
DA:3109,0
DA:3164,0
DA:3165,0
DA:3166,0
DA:3167,0
DA:3169,0
DA:3170,0
DA:3171,0
DA:3172,0
DA:3174,0
DA:3175,0
DA:3176,0
DA:3177,0
DA:3180,0
DA:3183,0
DA:3184,0
DA:3186,0
DA:3188,0
DA:3191,0
DA:3200,0
DA:3201,0
DA:3202,0
DA:3203,0
DA:3204,0
DA:3208,0
DA:3210,0
DA:3212,0
DA:3216,0
DA:3217,0
DA:3218,0
DA:3220,0
DA:3238,0
DA:3241,0
DA:3248,0
DA:3249,0
DA:3250,0
DA:3251,0
DA:3252,0
DA:3253,0
DA:3254,0
DA:3258,0
DA:3261,0
DA:3262,0
DA:3263,0
DA:3266,0
DA:3267,0
DA:3268,0
DA:3272,0
DA:3273,0
DA:3274,0
DA:3329,0
DA:3330,0
DA:3331,0
DA:3332,0
DA:3334,0
DA:3335,0
DA:3336,0
DA:3337,0
DA:3339,0
DA:3340,0
DA:3341,0
DA:3342,0
DA:3345,0
DA:3348,0
DA:3349,0
DA:3351,0
DA:3353,0
DA:3356,0
DA:3365,0
DA:3366,0
DA:3367,0
DA:3368,0
DA:3369,0
DA:3373,0
DA:3375,0
DA:3377,0
DA:3381,0
DA:3382,0
DA:3383,0
DA:3385,0
DA:3408,0
DA:3409,0
DA:3410,0
DA:3411,0
DA:3412,0
DA:3413,0
DA:3414,0
DA:3416,0
DA:3419,0
DA:3423,0
DA:3426,0
DA:3427,0
DA:3428,0
DA:3430,0
DA:3432,0
DA:3454,0
DA:3455,0
DA:3456,0
DA:3457,0
DA:3458,0
DA:3459,0
DA:3461,0
DA:3464,0
DA:3465,0
DA:3466,0
DA:3467,0
DA:3468,0
DA:3469,0
DA:3472,0
DA:3475,0
DA:3476,0
DA:3477,0
DA:3480,0
DA:3483,0
DA:3484,0
DA:3486,0
DA:3490,0
DA:3494,0
DA:3497,0
DA:3500,0
DA:3502,0
DA:3503,0
DA:3505,0
DA:3507,0
DA:3508,0
DA:3510,0
DA:3511,0
DA:3515,0
DA:3516,0
DA:3517,0
DA:3518,0
DA:3519,0
DA:3521,0
DA:3542,0
DA:3543,0
DA:3544,0
DA:3545,0
DA:3546,0
DA:3548,0
DA:3551,0
DA:3552,0
DA:3553,0
DA:3555,0
DA:3558,0
DA:3561,0
DA:3562,0
DA:3563,0
DA:3565,0
DA:3567,0
DA:3590,0
DA:3591,0
DA:3592,0
DA:3593,0
DA:3594,0
DA:3596,0
DA:3597,0
DA:3599,0
DA:3602,0
DA:3605,0
DA:3608,0
DA:3609,0
DA:3610,0
DA:3612,0
DA:3614,0
DA:3630,0
DA:3631,0
DA:3632,0
DA:3634,0
DA:3635,0
DA:3636,0
DA:3637,0
DA:3660,0
DA:3661,0
DA:3662,0
DA:3663,0
DA:3664,0
DA:3665,0
DA:3667,0
DA:3668,0
DA:3669,0
DA:3670,0
DA:3671,0
DA:3673,0
DA:3674,0
DA:3676,0
DA:3679,0
DA:3680,0
DA:3681,0
DA:3683,0
DA:3684,0
DA:3685,0
DA:3686,0
DA:3690,0
DA:3691,0
DA:3692,0
DA:3694,0
DA:3695,0
DA:3696,0
DA:3697,0
DA:3699,0
DA:3723,0
DA:3724,0
DA:3725,0
DA:3726,0
DA:3727,0
DA:3728,0
DA:3729,0
DA:3730,0
DA:3732,0
DA:3733,0
DA:3736,0
DA:3737,0
DA:3739,0
DA:3740,0
DA:3741,0
DA:3742,0
DA:3743,0
DA:3744,0
DA:3747,0
DA:3749,0
DA:3750,0
DA:3751,0
DA:3753,0
DA:3755,0
DA:3765,0
DA:3766,0
DA:3767,0
DA:3768,0
DA:3769,0
DA:3770,0
DA:3771,0
DA:3772,0
DA:3773,0
DA:3775,0
DA:3777,0
DA:3778,0
DA:3779,0
DA:3780,0
DA:3781,0
DA:3783,0
DA:3784,0
DA:3787,0
DA:3788,0
DA:3790,0
DA:3791,0
DA:3792,0
DA:3793,0
DA:3794,0
DA:3795,0
DA:3798,0
DA:3799,0
DA:3800,0
DA:3801,0
DA:3802,0
DA:3803,0
DA:3804,0
DA:3805,0
DA:3809,0
DA:3810,0
DA:3811,0
DA:3813,0
DA:3814,0
DA:3815,0
DA:3816,0
DA:3818,0
DA:3840,0
DA:3841,0
DA:3842,0
DA:3843,0
DA:3844,0
DA:3845,0
DA:3846,0
DA:3847,0
DA:3849,0
DA:3850,0
DA:3853,0
DA:3854,0
DA:3856,0
DA:3857,0
DA:3858,0
DA:3859,0
DA:3860,0
DA:3861,0
DA:3864,0
DA:3866,0
DA:3867,0
DA:3868,0
DA:3870,0
DA:3872,0
DA:3880,0
DA:3881,0
DA:3882,0
DA:3883,0
DA:3884,0
DA:3885,0
DA:3886,0
DA:3887,0
DA:3888,0
DA:3890,0
DA:3892,0
DA:3893,0
DA:3894,0
DA:3895,0
DA:3896,0
DA:3898,0
DA:3899,0
DA:3902,0
DA:3903,0
DA:3905,0
DA:3906,0
DA:3907,0
DA:3908,0
DA:3909,0
DA:3910,0
DA:3913,0
DA:3914,0
DA:3915,0
DA:3916,0
DA:3917,0
DA:3918,0
DA:3919,0
DA:3920,0
DA:3924,0
DA:3925,0
DA:3926,0
DA:3928,0
DA:3929,0
DA:3930,0
DA:3931,0
DA:3933,0
DA:3957,0
DA:3958,0
DA:3959,0
DA:3960,0
DA:3961,0
DA:3962,0
DA:3963,0
DA:3973,0
DA:3974,0
DA:3975,0
DA:3976,0
DA:3977,0
DA:3978,0
DA:3979,0
DA:3980,0
DA:4004,0
DA:4005,0
DA:4006,0
DA:4007,0
DA:4008,0
DA:4009,0
DA:4010,0
DA:4011,0
DA:4012,0
DA:4013,0
DA:4014,0
DA:4015,0
DA:4016,0
DA:4017,0
DA:4039,0
DA:4040,0
DA:4041,0
DA:4042,0
DA:4043,0
DA:4044,0
DA:4051,1
DA:4052,1
DA:4053,1
DA:4054,1
DA:4055,1
DA:4056,1
DA:4059,1
DA:4060,1
DA:4061,1
DA:4062,1
DA:4063,1
DA:4064,1
DA:4065,1
DA:4066,1
DA:4067,1
DA:4068,1
DA:4069,1
DA:4070,1
DA:4071,1
DA:4072,1
DA:4073,1
DA:4074,1
DA:4075,1
DA:4076,1
DA:4079,1
DA:4080,1
DA:4081,1
DA:4082,1
DA:4083,1
DA:4084,1
DA:4085,1
DA:4086,1
DA:4087,1
DA:4088,1
DA:4089,1
DA:4090,1
DA:4091,1
DA:4092,1
BRF:0
BRH:0
LF:1216
LH:38
end_of_record
SF:/home/bzf/projects/pmix-rs/src/tool.rs
FN:807,_RNvNtNtCsyULe2umut5_4pmix4tool5testss_30test_tool_is_connected_default
FN:802,_RNvNtNtCsyULe2umut5_4pmix4tool5testss_32test_is_tool_initialized_default
FN:793,_RNvNtCsyULe2umut5_4pmix4tool17tool_is_connected
FN:99,_RNvNtCsyULe2umut5_4pmix4tool19is_tool_initialized
FN:93,_RNCNvNtCsyULe2umut5_4pmix4tool16TOOL_INITIALIZED0B5_
FN:283,_RNvMs0_NtCsyULe2umut5_4pmix4toolNtB7_4Proc4rank
FN:268,_RNvMs0_NtCsyULe2umut5_4pmix4toolNtB7_4Proc6nspace
FN:315,_RNvMs2_NtCsyULe2umut5_4pmix4toolNtB5_16PmixServerHandle4proc
FN:80,_RNvMs_NtCsyULe2umut5_4pmix4toolNtB4_14PmixToolHandle4proc
FN:242,_RNvNtCsyULe2umut5_4pmix4tool13tool_finalize
FN:522,_RNvNtCsyULe2umut5_4pmix4tool15tool_disconnect
FN:753,_RNvNtCsyULe2umut5_4pmix4tool15tool_set_server
FN:661,_RNvNtCsyULe2umut5_4pmix4tool16tool_get_servers
FN:213,_RNvNtCsyULe2umut5_4pmix4tool17tool_init_minimal
FN:392,_RNvNtCsyULe2umut5_4pmix4tool21tool_attach_to_server
FN:587,_RNvNtCsyULe2umut5_4pmix4tool22tool_connect_to_server
FN:157,_RNvNtCsyULe2umut5_4pmix4tool9tool_init
FN:70,_RNvXNtCsyULe2umut5_4pmix4toolNtB2_14PmixToolHandleNtNtCs27Vx93FoQ6z_4core3fmt5Debug3fmt
FN:305,_RNvXs1_NtCsyULe2umut5_4pmix4toolNtB5_16PmixServerHandleNtNtCs27Vx93FoQ6z_4core3fmt5Debug3fmt
FNDA:1,_RNvNtNtCsyULe2umut5_4pmix4tool5testss_30test_tool_is_connected_default
FNDA:1,_RNvNtNtCsyULe2umut5_4pmix4tool5testss_32test_is_tool_initialized_default
FNDA:1,_RNvNtCsyULe2umut5_4pmix4tool17tool_is_connected
FNDA:1,_RNvNtCsyULe2umut5_4pmix4tool19is_tool_initialized
FNDA:1,_RNCNvNtCsyULe2umut5_4pmix4tool16TOOL_INITIALIZED0B5_
FNDA:0,_RNvMs0_NtCsyULe2umut5_4pmix4toolNtB7_4Proc4rank
FNDA:0,_RNvMs0_NtCsyULe2umut5_4pmix4toolNtB7_4Proc6nspace
FNDA:0,_RNvMs2_NtCsyULe2umut5_4pmix4toolNtB5_16PmixServerHandle4proc
FNDA:0,_RNvMs_NtCsyULe2umut5_4pmix4toolNtB4_14PmixToolHandle4proc
FNDA:0,_RNvNtCsyULe2umut5_4pmix4tool13tool_finalize
FNDA:0,_RNvNtCsyULe2umut5_4pmix4tool15tool_disconnect
FNDA:0,_RNvNtCsyULe2umut5_4pmix4tool15tool_set_server
FNDA:0,_RNvNtCsyULe2umut5_4pmix4tool16tool_get_servers
FNDA:0,_RNvNtCsyULe2umut5_4pmix4tool17tool_init_minimal
FNDA:0,_RNvNtCsyULe2umut5_4pmix4tool21tool_attach_to_server
FNDA:0,_RNvNtCsyULe2umut5_4pmix4tool22tool_connect_to_server
FNDA:0,_RNvNtCsyULe2umut5_4pmix4tool9tool_init
FNDA:0,_RNvXNtCsyULe2umut5_4pmix4toolNtB2_14PmixToolHandleNtNtCs27Vx93FoQ6z_4core3fmt5Debug3fmt
FNDA:0,_RNvXs1_NtCsyULe2umut5_4pmix4toolNtB5_16PmixServerHandleNtNtCs27Vx93FoQ6z_4core3fmt5Debug3fmt
FNF:19
FNH:5
DA:70,0
DA:71,0
DA:72,0
DA:73,0
DA:74,0
DA:75,0
DA:80,0
DA:81,0
DA:82,0
DA:93,1
DA:99,1
DA:100,1
DA:101,1
DA:157,0
DA:158,0
DA:160,0
DA:161,0
DA:163,0
DA:165,0
DA:167,0
DA:178,0
DA:181,0
DA:182,0
DA:183,0
DA:184,0
DA:185,0
DA:186,0
DA:187,0
DA:188,0
DA:189,0
DA:191,0
DA:193,0
DA:213,0
DA:214,0
DA:215,0
DA:216,0
DA:217,0
DA:218,0
DA:219,0
DA:221,0
DA:242,0
DA:243,0
DA:248,0
DA:251,0
DA:252,0
DA:253,0
DA:254,0
DA:256,0
DA:258,0
DA:268,0
DA:270,0
DA:271,0
DA:272,0
DA:273,0
DA:274,0
DA:275,0
DA:276,0
DA:277,0
DA:280,0
DA:283,0
DA:284,0
DA:285,0
DA:305,0
DA:306,0
DA:307,0
DA:308,0
DA:309,0
DA:310,0
DA:315,0
DA:316,0
DA:317,0
DA:392,0
DA:393,0
DA:394,0
DA:395,0
DA:396,0
DA:397,0
DA:398,0
DA:400,0
DA:401,0
DA:403,0
DA:405,0
DA:406,0
DA:408,0
DA:411,0
DA:412,0
DA:414,0
DA:416,0
DA:418,0
DA:432,0
DA:435,0
DA:436,0
DA:437,0
DA:438,0
DA:441,0
DA:442,0
DA:443,0
DA:444,0
DA:445,0
DA:446,0
DA:447,0
DA:449,0
DA:452,0
DA:453,0
DA:454,0
DA:455,0
DA:456,0
DA:457,0
DA:458,0
DA:460,0
DA:463,0
DA:464,0
DA:522,0
DA:523,0
DA:529,0
DA:532,0
DA:533,0
DA:534,0
DA:536,0
DA:538,0
DA:587,0
DA:588,0
DA:589,0
DA:590,0
DA:591,0
DA:593,0
DA:594,0
DA:596,0
DA:598,0
DA:600,0
DA:608,0
DA:611,0
DA:612,0
DA:613,0
DA:614,0
DA:615,0
DA:616,0
DA:617,0
DA:618,0
DA:620,0
DA:622,0
DA:661,0
DA:662,0
DA:663,0
DA:665,0
DA:672,0
DA:675,0
DA:676,0
DA:677,0
DA:678,0
DA:682,0
DA:683,0
DA:684,0
DA:685,0
DA:686,0
DA:687,0
DA:688,0
DA:690,0
DA:692,0
DA:693,0
DA:696,0
DA:697,0
DA:698,0
DA:699,0
DA:700,0
DA:701,0
DA:703,0
DA:753,0
DA:754,0
DA:755,0
DA:757,0
DA:759,0
DA:761,0
DA:768,0
DA:771,0
DA:772,0
DA:773,0
DA:775,0
DA:777,0
DA:793,1
DA:794,1
DA:795,1
DA:802,1
DA:803,1
DA:804,1
DA:807,1
DA:808,1
DA:809,1
BRF:0
BRH:0
LF:188
LH:13
end_of_record
SF:/home/bzf/projects/pmix-rs/src/utility.rs
FN:2279,_RNvNtNtCsyULe2umut5_4pmix7utility5testss_17test_scope_to_raw
FN:2292,_RNvNtNtCsyULe2umut5_4pmix7utility5testss_18test_scope_display
FN:1749,_RNvNtNtCsyULe2umut5_4pmix7utility5testss_22test_byte_object_clone
FN:1732,_RNvNtNtCsyULe2umut5_4pmix7utility5testss_22test_byte_object_empty
FN:2482,_RNvNtNtCsyULe2umut5_4pmix7utility5testss_22test_data_range_to_raw
FN:3021,_RNvNtNtCsyULe2umut5_4pmix7utility5testss_22test_job_state_display
FN:1741,_RNvNtNtCsyULe2umut5_4pmix7utility5testss_23test_byte_object_as_ref
FN:2499,_RNvNtNtCsyULe2umut5_4pmix7utility5testss_23test_data_range_display
FN:3120,_RNvNtNtCsyULe2umut5_4pmix7utility5testss_23test_link_state_display
FN:3268,_RNvNtNtCsyULe2umut5_4pmix7utility5testss_24test_device_type_display
FN:2666,_RNvNtNtCsyULe2umut5_4pmix7utility5testss_24test_info_flags_contains
FN:2676,_RNvNtNtCsyULe2umut5_4pmix7utility5testss_24test_info_flags_is_empty
FN:1723,_RNvNtNtCsyULe2umut5_4pmix7utility5testss_25test_byte_object_from_vec
FN:1850,_RNvNtNtCsyULe2umut5_4pmix7utility5testss_25test_error_string_success
FN:3048,_RNvNtNtCsyULe2umut5_4pmix7utility5testss_25test_job_state_raw_values
FN:2266,_RNvNtNtCsyULe2umut5_4pmix7utility5testss_25test_scope_from_raw_known
FN:2227,_RNvNtNtCsyULe2umut5_4pmix7utility5testss_25test_scope_string_unknown
FN:1778,_RNvNtNtCsyULe2umut5_4pmix7utility5testss_26test_byte_object_free_null
FN:1937,_RNvNtNtCsyULe2umut5_4pmix7utility5testss_26test_error_string_distinct
FN:2796,_RNvNtNtCsyULe2umut5_4pmix7utility5testss_26test_iof_channel_flags_raw
FN:3149,_RNvNtNtCsyULe2umut5_4pmix7utility5testss_26test_link_state_raw_values
FN:2214,_RNvNtNtCsyULe2umut5_4pmix7utility5testss_26test_scope_string_distinct
FN:1713,_RNvNtNtCsyULe2umut5_4pmix7utility5testss_27test_byte_object_from_slice
FN:3254,_RNvNtNtCsyULe2umut5_4pmix7utility5testss_27test_device_type_raw_values
FN:3362,_RNvNtNtCsyULe2umut5_4pmix7utility5testss_27test_generate_ppn_irregular
FN:1834,_RNvNtNtCsyULe2umut5_4pmix7utility5testss_27test_initialized_idempotent
FN:1790,_RNvNtNtCsyULe2umut5_4pmix7utility5testss_27test_iof_push_handler_trait
FN:2146,_RNvNtNtCsyULe2umut5_4pmix7utility5testss_27test_scope_string_all_known
FN:3351,_RNvNtNtCsyULe2umut5_4pmix7utility5testss_28test_generate_ppn_many_procs
FN:2809,_RNvNtNtCsyULe2umut5_4pmix7utility5testss_28test_iof_channel_flags_bitor
FN:3318,_RNvNtNtCsyULe2umut5_4pmix7utility5testss_29test_generate_ppn_empty_input
FN:3340,_RNvNtNtCsyULe2umut5_4pmix7utility5testss_29test_generate_ppn_single_node
FN:2651,_RNvNtNtCsyULe2umut5_4pmix7utility5testss_29test_info_flags_raw_roundtrip
FN:2465,_RNvNtNtCsyULe2umut5_4pmix7utility5testss_30test_data_range_from_raw_known
FN:2425,_RNvNtNtCsyULe2umut5_4pmix7utility5testss_30test_data_range_string_invalid
FN:2407,_RNvNtNtCsyULe2umut5_4pmix7utility5testss_30test_data_range_string_unknown
FN:1912,_RNvNtNtCsyULe2umut5_4pmix7utility5testss_30test_error_string_unknown_code
FN:2843,_RNvNtNtCsyULe2umut5_4pmix7utility5testss_30test_iof_channel_flags_display
FN:2121,_RNvNtNtCsyULe2umut5_4pmix7utility5testss_30test_proc_state_classification
FN:1956,_RNvNtNtCsyULe2umut5_4pmix7utility5testss_30test_proc_state_string_running
FN:2062,_RNvNtNtCsyULe2umut5_4pmix7utility5testss_30test_proc_state_string_unknown
FN:2394,_RNvNtNtCsyULe2umut5_4pmix7utility5testss_31test_data_range_string_distinct
FN:3211,_RNvNtNtCsyULe2umut5_4pmix7utility5testss_31test_device_type_string_unknown
FN:1925,_RNvNtNtCsyULe2umut5_4pmix7utility5testss_31test_error_string_deterministic
FN:1867,_RNvNtNtCsyULe2umut5_4pmix7utility5testss_31test_error_string_generic_error
FN:1880,_RNvNtNtCsyULe2umut5_4pmix7utility5testss_31test_error_string_various_codes
FN:3384,_RNvNtNtCsyULe2umut5_4pmix7utility5testss_31test_generate_ppn_error_is_init
FN:2821,_RNvNtNtCsyULe2umut5_4pmix7utility5testss_31test_iof_channel_flags_contains
FN:2832,_RNvNtNtCsyULe2umut5_4pmix7utility5testss_31test_iof_channel_flags_is_empty
FN:3008,_RNvNtNtCsyULe2umut5_4pmix7utility5testss_31test_job_state_from_raw_unknown
FN:2901,_RNvNtNtCsyULe2umut5_4pmix7utility5testss_31test_job_state_string_all_known
FN:3130,_RNvNtNtCsyULe2umut5_4pmix7utility5testss_31test_link_state_from_raw_to_raw
FN:2018,_RNvNtNtCsyULe2umut5_4pmix7utility5testss_31test_proc_state_string_distinct
FN:2202,_RNvNtNtCsyULe2umut5_4pmix7utility5testss_31test_scope_string_deterministic
FN:2313,_RNvNtNtCsyULe2umut5_4pmix7utility5testss_32test_data_range_string_all_known
FN:3224,_RNvNtNtCsyULe2umut5_4pmix7utility5testss_32test_device_type_from_raw_to_raw
FN:3186,_RNvNtNtCsyULe2umut5_4pmix7utility5testss_32test_device_type_string_expected
FN:3329,_RNvNtNtCsyULe2umut5_4pmix7utility5testss_32test_generate_ppn_range_notation
FN:2524,_RNvNtNtCsyULe2umut5_4pmix7utility5testss_32test_info_directives_string_reqd
FN:2774,_RNvNtNtCsyULe2umut5_4pmix7utility5testss_32test_iof_channel_string_combined
FN:2762,_RNvNtNtCsyULe2umut5_4pmix7utility5testss_32test_iof_channel_string_distinct
FN:2934,_RNvNtNtCsyULe2umut5_4pmix7utility5testss_32test_job_state_string_key_states
FN:3068,_RNvNtNtCsyULe2umut5_4pmix7utility5testss_32test_link_state_string_all_known
FN:3163,_RNvNtNtCsyULe2umut5_4pmix7utility5testss_33test_device_type_string_all_known
FN:2587,_RNvNtNtCsyULe2umut5_4pmix7utility5testss_33test_info_directives_string_empty
FN:2693,_RNvNtNtCsyULe2umut5_4pmix7utility5testss_33test_iof_channel_string_all_known
FN:1973,_RNvNtNtCsyULe2umut5_4pmix7utility5testss_33test_proc_state_string_key_states
FN:2172,_RNvNtNtCsyULe2umut5_4pmix7utility5testss_33test_scope_string_expected_values
FN:2029,_RNvNtNtCsyULe2umut5_4pmix7utility5testss_34test_proc_state_string_error_range
FN:1768,_RNvNtNtCsyULe2umut5_4pmix7utility5testss_35test_byte_object_empty_c_conversion
FN:2882,_RNvNtNtCsyULe2umut5_4pmix7utility5testss_35test_iof_channel_flags_bitor_assign
FN:2967,_RNvNtNtCsyULe2umut5_4pmix7utility5testss_35test_job_state_string_deterministic
FN:2382,_RNvNtNtCsyULe2umut5_4pmix7utility5testss_36test_data_range_string_deterministic
FN:3373,_RNvNtNtCsyULe2umut5_4pmix7utility5testss_36test_generate_ppn_null_byte_rejected
FN:2569,_RNvNtNtCsyULe2umut5_4pmix7utility5testss_36test_info_directives_string_combined
FN:2620,_RNvNtNtCsyULe2umut5_4pmix7utility5testss_36test_info_directives_string_distinct
FN:2632,_RNvNtNtCsyULe2umut5_4pmix7utility5testss_36test_info_directives_string_reserved
FN:3106,_RNvNtNtCsyULe2umut5_4pmix7utility5testss_36test_link_state_string_deterministic
FN:2006,_RNvNtNtCsyULe2umut5_4pmix7utility5testss_36test_proc_state_string_deterministic
FN:2249,_RNvNtNtCsyULe2umut5_4pmix7utility5testss_36test_scope_from_raw_to_raw_roundtrip
FN:3201,_RNvNtNtCsyULe2umut5_4pmix7utility5testss_37test_device_type_string_deterministic
FN:3301,_RNvNtNtCsyULe2umut5_4pmix7utility5testss_37test_generate_ppn_error_deterministic
FN:2541,_RNvNtNtCsyULe2umut5_4pmix7utility5testss_37test_info_directives_string_all_known
FN:1811,_RNvNtNtCsyULe2umut5_4pmix7utility5testss_37test_initialized_before_init_is_false
FN:2750,_RNvNtNtCsyULe2umut5_4pmix7utility5testss_37test_iof_channel_string_deterministic
FN:2343,_RNvNtNtCsyULe2umut5_4pmix7utility5testss_38test_data_range_string_expected_values
FN:3289,_RNvNtNtCsyULe2umut5_4pmix7utility5testss_38test_generate_ppn_requires_server_init
FN:3091,_RNvNtNtCsyULe2umut5_4pmix7utility5testss_38test_link_state_string_expected_values
FN:1758,_RNvNtNtCsyULe2umut5_4pmix7utility5testss_39test_byte_object_c_conversion_roundtrip
FN:2723,_RNvNtNtCsyULe2umut5_4pmix7utility5testss_39test_iof_channel_string_expected_values
FN:2981,_RNvNtNtCsyULe2umut5_4pmix7utility5testss_40test_job_state_from_raw_to_raw_roundtrip
FN:2446,_RNvNtNtCsyULe2umut5_4pmix7utility5testss_41test_data_range_from_raw_to_raw_roundtrip
FN:2607,_RNvNtNtCsyULe2umut5_4pmix7utility5testss_41test_info_directives_string_deterministic
FN:2080,_RNvNtNtCsyULe2umut5_4pmix7utility5testss_41test_proc_state_from_raw_to_raw_roundtrip
FN:963,_RNCNvNtCsyULe2umut5_4pmix7utility12IOF_REGISTRY0B5_
FN:826,_RNCNvNtCsyULe2umut5_4pmix7utility12generate_ppn0B5_
FN:1508,_RNvMs3_NtCsyULe2umut5_4pmix7utilityNtB5_14PmixByteObject10free_c_ptr
FN:1445,_RNvMs3_NtCsyULe2umut5_4pmix7utilityNtB5_14PmixByteObject10from_slice
FN:1484,_RNvMs3_NtCsyULe2umut5_4pmix7utilityNtB5_14PmixByteObject12as_c_mut_ptr
FN:1467,_RNvMs3_NtCsyULe2umut5_4pmix7utilityNtB5_14PmixByteObject3len
FN:1457,_RNvMs3_NtCsyULe2umut5_4pmix7utilityNtB5_14PmixByteObject5empty
FN:1472,_RNvMs3_NtCsyULe2umut5_4pmix7utilityNtB5_14PmixByteObject8as_slice
FN:1452,_RNvMs3_NtCsyULe2umut5_4pmix7utilityNtB5_14PmixByteObject8from_vec
FN:1462,_RNvMs3_NtCsyULe2umut5_4pmix7utilityNtB5_14PmixByteObject8is_empty
FN:42,_RNvNtCsyULe2umut5_4pmix7utility11initialized
FN:76,_RNvNtCsyULe2umut5_4pmix7utility12error_string
FN:824,_RNvNtCsyULe2umut5_4pmix7utility12generate_ppn
FN:166,_RNvNtCsyULe2umut5_4pmix7utility12scope_string
FN:502,_RNvNtCsyULe2umut5_4pmix7utility16job_state_string
FN:256,_RNvNtCsyULe2umut5_4pmix7utility17data_range_string
FN:661,_RNvNtCsyULe2umut5_4pmix7utility17link_state_string
FN:121,_RNvNtCsyULe2umut5_4pmix7utility17proc_state_string
FN:698,_RNvNtCsyULe2umut5_4pmix7utility18device_type_string
FN:457,_RNvNtCsyULe2umut5_4pmix7utility18iof_channel_string
FN:309,_RNvNtCsyULe2umut5_4pmix7utility22info_directives_string
FN:1520,_RNvXs4_NtCsyULe2umut5_4pmix7utilityNtB5_14PmixByteObjectINtNtCs27Vx93FoQ6z_4core7convert5AsRefShE6as_ref
FN:1791,_RINvNvNtNtCsyULe2umut5_4pmix7utility5testss_27test_iof_push_handler_trait14assert_handlerFNtB8_10PmixStatusEuEB8_
FN:1791,_RINvNvNtNtCsyULe2umut5_4pmix7utility5testss_27test_iof_push_handler_trait14assert_handlerINtNtCsgW8esjfipvk_5alloc5boxed3BoxDINtNtNtCs27Vx93FoQ6z_4core3ops8function2FnTNtB8_10PmixStatusEEp6OutputuNtNtB26_6marker4SendEL_EEB8_
FN:1304,_RINvNtCsyULe2umut5_4pmix7utility14iof_deregisterpEB4_
FN:1183,_RINvNtCsyULe2umut5_4pmix7utility17iof_pull_blockingpEB4_
FN:1115,_RINvNtCsyULe2umut5_4pmix7utility8iof_pullppEB4_
FN:1587,_RINvNtCsyULe2umut5_4pmix7utility8iof_pushpEB4_
FN:1195,_RNCINvNtCsyULe2umut5_4pmix7utility17iof_pull_blockingpE0B6_
FN:910,_RNCNCNvNtCsyULe2umut5_4pmix7utility19register_attributess_00B7_
FN:754,_RNCNvNtCsyULe2umut5_4pmix7utility14generate_regex0B5_
FN:607,_RNCNvNtCsyULe2umut5_4pmix7utility18get_attribute_name0B5_
FN:902,_RNCNvNtCsyULe2umut5_4pmix7utility19register_attributes0B5_
FN:920,_RNCNvNtCsyULe2umut5_4pmix7utility19register_attributess0_0B5_
FN:910,_RNCNvNtCsyULe2umut5_4pmix7utility19register_attributess_0B5_
FN:556,_RNCNvNtCsyULe2umut5_4pmix7utility20get_attribute_string0B5_
FN:752,_RNvNtCsyULe2umut5_4pmix7utility14generate_regex
FN:354,_RNvNtCsyULe2umut5_4pmix7utility16data_type_string
FN:1659,_RNvNtCsyULe2umut5_4pmix7utility17iof_push_blocking
FN:606,_RNvNtCsyULe2umut5_4pmix7utility18get_attribute_name
FN:999,_RNvNtCsyULe2umut5_4pmix7utility18io_callback_bridge
FN:211,_RNvNtCsyULe2umut5_4pmix7utility18persistence_string
FN:1048,_RNvNtCsyULe2umut5_4pmix7utility19reg_callback_bridge
FN:900,_RNvNtCsyULe2umut5_4pmix7utility19register_attributes
FN:553,_RNvNtCsyULe2umut5_4pmix7utility20get_attribute_string
FN:1550,_RNvNtCsyULe2umut5_4pmix7utility20push_callback_bridge
FN:1259,_RNvNtCsyULe2umut5_4pmix7utility21dereg_callback_bridge
FN:403,_RNvNtCsyULe2umut5_4pmix7utility22alloc_directive_string
FN:1379,_RNvNtCsyULe2umut5_4pmix7utility23iof_deregister_blocking
FNDA:1,_RNvNtNtCsyULe2umut5_4pmix7utility5testss_17test_scope_to_raw
FNDA:1,_RNvNtNtCsyULe2umut5_4pmix7utility5testss_18test_scope_display
FNDA:1,_RNvNtNtCsyULe2umut5_4pmix7utility5testss_22test_byte_object_clone
FNDA:1,_RNvNtNtCsyULe2umut5_4pmix7utility5testss_22test_byte_object_empty
FNDA:1,_RNvNtNtCsyULe2umut5_4pmix7utility5testss_22test_data_range_to_raw
FNDA:1,_RNvNtNtCsyULe2umut5_4pmix7utility5testss_22test_job_state_display
FNDA:1,_RNvNtNtCsyULe2umut5_4pmix7utility5testss_23test_byte_object_as_ref
FNDA:1,_RNvNtNtCsyULe2umut5_4pmix7utility5testss_23test_data_range_display
FNDA:1,_RNvNtNtCsyULe2umut5_4pmix7utility5testss_23test_link_state_display
FNDA:1,_RNvNtNtCsyULe2umut5_4pmix7utility5testss_24test_device_type_display
FNDA:1,_RNvNtNtCsyULe2umut5_4pmix7utility5testss_24test_info_flags_contains
FNDA:1,_RNvNtNtCsyULe2umut5_4pmix7utility5testss_24test_info_flags_is_empty
FNDA:1,_RNvNtNtCsyULe2umut5_4pmix7utility5testss_25test_byte_object_from_vec
FNDA:1,_RNvNtNtCsyULe2umut5_4pmix7utility5testss_25test_error_string_success
FNDA:1,_RNvNtNtCsyULe2umut5_4pmix7utility5testss_25test_job_state_raw_values
FNDA:1,_RNvNtNtCsyULe2umut5_4pmix7utility5testss_25test_scope_from_raw_known
FNDA:1,_RNvNtNtCsyULe2umut5_4pmix7utility5testss_25test_scope_string_unknown
FNDA:1,_RNvNtNtCsyULe2umut5_4pmix7utility5testss_26test_byte_object_free_null
FNDA:1,_RNvNtNtCsyULe2umut5_4pmix7utility5testss_26test_error_string_distinct
FNDA:1,_RNvNtNtCsyULe2umut5_4pmix7utility5testss_26test_iof_channel_flags_raw
FNDA:1,_RNvNtNtCsyULe2umut5_4pmix7utility5testss_26test_link_state_raw_values
FNDA:1,_RNvNtNtCsyULe2umut5_4pmix7utility5testss_26test_scope_string_distinct
FNDA:1,_RNvNtNtCsyULe2umut5_4pmix7utility5testss_27test_byte_object_from_slice
FNDA:1,_RNvNtNtCsyULe2umut5_4pmix7utility5testss_27test_device_type_raw_values
FNDA:1,_RNvNtNtCsyULe2umut5_4pmix7utility5testss_27test_generate_ppn_irregular
FNDA:1,_RNvNtNtCsyULe2umut5_4pmix7utility5testss_27test_initialized_idempotent
FNDA:1,_RNvNtNtCsyULe2umut5_4pmix7utility5testss_27test_iof_push_handler_trait
FNDA:1,_RNvNtNtCsyULe2umut5_4pmix7utility5testss_27test_scope_string_all_known
FNDA:1,_RNvNtNtCsyULe2umut5_4pmix7utility5testss_28test_generate_ppn_many_procs
FNDA:1,_RNvNtNtCsyULe2umut5_4pmix7utility5testss_28test_iof_channel_flags_bitor
FNDA:1,_RNvNtNtCsyULe2umut5_4pmix7utility5testss_29test_generate_ppn_empty_input
FNDA:1,_RNvNtNtCsyULe2umut5_4pmix7utility5testss_29test_generate_ppn_single_node
FNDA:1,_RNvNtNtCsyULe2umut5_4pmix7utility5testss_29test_info_flags_raw_roundtrip
FNDA:1,_RNvNtNtCsyULe2umut5_4pmix7utility5testss_30test_data_range_from_raw_known
FNDA:1,_RNvNtNtCsyULe2umut5_4pmix7utility5testss_30test_data_range_string_invalid
FNDA:1,_RNvNtNtCsyULe2umut5_4pmix7utility5testss_30test_data_range_string_unknown
FNDA:1,_RNvNtNtCsyULe2umut5_4pmix7utility5testss_30test_error_string_unknown_code
FNDA:1,_RNvNtNtCsyULe2umut5_4pmix7utility5testss_30test_iof_channel_flags_display
FNDA:1,_RNvNtNtCsyULe2umut5_4pmix7utility5testss_30test_proc_state_classification
FNDA:1,_RNvNtNtCsyULe2umut5_4pmix7utility5testss_30test_proc_state_string_running
FNDA:1,_RNvNtNtCsyULe2umut5_4pmix7utility5testss_30test_proc_state_string_unknown
FNDA:1,_RNvNtNtCsyULe2umut5_4pmix7utility5testss_31test_data_range_string_distinct
FNDA:1,_RNvNtNtCsyULe2umut5_4pmix7utility5testss_31test_device_type_string_unknown
FNDA:1,_RNvNtNtCsyULe2umut5_4pmix7utility5testss_31test_error_string_deterministic
FNDA:1,_RNvNtNtCsyULe2umut5_4pmix7utility5testss_31test_error_string_generic_error
FNDA:1,_RNvNtNtCsyULe2umut5_4pmix7utility5testss_31test_error_string_various_codes
FNDA:1,_RNvNtNtCsyULe2umut5_4pmix7utility5testss_31test_generate_ppn_error_is_init
FNDA:1,_RNvNtNtCsyULe2umut5_4pmix7utility5testss_31test_iof_channel_flags_contains
FNDA:1,_RNvNtNtCsyULe2umut5_4pmix7utility5testss_31test_iof_channel_flags_is_empty
FNDA:1,_RNvNtNtCsyULe2umut5_4pmix7utility5testss_31test_job_state_from_raw_unknown
FNDA:1,_RNvNtNtCsyULe2umut5_4pmix7utility5testss_31test_job_state_string_all_known
FNDA:1,_RNvNtNtCsyULe2umut5_4pmix7utility5testss_31test_link_state_from_raw_to_raw
FNDA:1,_RNvNtNtCsyULe2umut5_4pmix7utility5testss_31test_proc_state_string_distinct
FNDA:1,_RNvNtNtCsyULe2umut5_4pmix7utility5testss_31test_scope_string_deterministic
FNDA:1,_RNvNtNtCsyULe2umut5_4pmix7utility5testss_32test_data_range_string_all_known
FNDA:1,_RNvNtNtCsyULe2umut5_4pmix7utility5testss_32test_device_type_from_raw_to_raw
FNDA:1,_RNvNtNtCsyULe2umut5_4pmix7utility5testss_32test_device_type_string_expected
FNDA:1,_RNvNtNtCsyULe2umut5_4pmix7utility5testss_32test_generate_ppn_range_notation
FNDA:1,_RNvNtNtCsyULe2umut5_4pmix7utility5testss_32test_info_directives_string_reqd
FNDA:1,_RNvNtNtCsyULe2umut5_4pmix7utility5testss_32test_iof_channel_string_combined
FNDA:1,_RNvNtNtCsyULe2umut5_4pmix7utility5testss_32test_iof_channel_string_distinct
FNDA:1,_RNvNtNtCsyULe2umut5_4pmix7utility5testss_32test_job_state_string_key_states
FNDA:1,_RNvNtNtCsyULe2umut5_4pmix7utility5testss_32test_link_state_string_all_known
FNDA:1,_RNvNtNtCsyULe2umut5_4pmix7utility5testss_33test_device_type_string_all_known
FNDA:1,_RNvNtNtCsyULe2umut5_4pmix7utility5testss_33test_info_directives_string_empty
FNDA:1,_RNvNtNtCsyULe2umut5_4pmix7utility5testss_33test_iof_channel_string_all_known
FNDA:1,_RNvNtNtCsyULe2umut5_4pmix7utility5testss_33test_proc_state_string_key_states
FNDA:1,_RNvNtNtCsyULe2umut5_4pmix7utility5testss_33test_scope_string_expected_values
FNDA:1,_RNvNtNtCsyULe2umut5_4pmix7utility5testss_34test_proc_state_string_error_range
FNDA:1,_RNvNtNtCsyULe2umut5_4pmix7utility5testss_35test_byte_object_empty_c_conversion
FNDA:1,_RNvNtNtCsyULe2umut5_4pmix7utility5testss_35test_iof_channel_flags_bitor_assign
FNDA:1,_RNvNtNtCsyULe2umut5_4pmix7utility5testss_35test_job_state_string_deterministic
FNDA:1,_RNvNtNtCsyULe2umut5_4pmix7utility5testss_36test_data_range_string_deterministic
FNDA:1,_RNvNtNtCsyULe2umut5_4pmix7utility5testss_36test_generate_ppn_null_byte_rejected
FNDA:1,_RNvNtNtCsyULe2umut5_4pmix7utility5testss_36test_info_directives_string_combined
FNDA:1,_RNvNtNtCsyULe2umut5_4pmix7utility5testss_36test_info_directives_string_distinct
FNDA:1,_RNvNtNtCsyULe2umut5_4pmix7utility5testss_36test_info_directives_string_reserved
FNDA:1,_RNvNtNtCsyULe2umut5_4pmix7utility5testss_36test_link_state_string_deterministic
FNDA:1,_RNvNtNtCsyULe2umut5_4pmix7utility5testss_36test_proc_state_string_deterministic
FNDA:1,_RNvNtNtCsyULe2umut5_4pmix7utility5testss_36test_scope_from_raw_to_raw_roundtrip
FNDA:1,_RNvNtNtCsyULe2umut5_4pmix7utility5testss_37test_device_type_string_deterministic
FNDA:1,_RNvNtNtCsyULe2umut5_4pmix7utility5testss_37test_generate_ppn_error_deterministic
FNDA:1,_RNvNtNtCsyULe2umut5_4pmix7utility5testss_37test_info_directives_string_all_known
FNDA:1,_RNvNtNtCsyULe2umut5_4pmix7utility5testss_37test_initialized_before_init_is_false
FNDA:1,_RNvNtNtCsyULe2umut5_4pmix7utility5testss_37test_iof_channel_string_deterministic
FNDA:1,_RNvNtNtCsyULe2umut5_4pmix7utility5testss_38test_data_range_string_expected_values
FNDA:1,_RNvNtNtCsyULe2umut5_4pmix7utility5testss_38test_generate_ppn_requires_server_init
FNDA:1,_RNvNtNtCsyULe2umut5_4pmix7utility5testss_38test_link_state_string_expected_values
FNDA:1,_RNvNtNtCsyULe2umut5_4pmix7utility5testss_39test_byte_object_c_conversion_roundtrip
FNDA:1,_RNvNtNtCsyULe2umut5_4pmix7utility5testss_39test_iof_channel_string_expected_values
FNDA:1,_RNvNtNtCsyULe2umut5_4pmix7utility5testss_40test_job_state_from_raw_to_raw_roundtrip
FNDA:1,_RNvNtNtCsyULe2umut5_4pmix7utility5testss_41test_data_range_from_raw_to_raw_roundtrip
FNDA:1,_RNvNtNtCsyULe2umut5_4pmix7utility5testss_41test_info_directives_string_deterministic
FNDA:1,_RNvNtNtCsyULe2umut5_4pmix7utility5testss_41test_proc_state_from_raw_to_raw_roundtrip
FNDA:0,_RNCNvNtCsyULe2umut5_4pmix7utility12IOF_REGISTRY0B5_
FNDA:0,_RNCNvNtCsyULe2umut5_4pmix7utility12generate_ppn0B5_
FNDA:3,_RNvMs3_NtCsyULe2umut5_4pmix7utilityNtB5_14PmixByteObject10free_c_ptr
FNDA:4,_RNvMs3_NtCsyULe2umut5_4pmix7utilityNtB5_14PmixByteObject10from_slice
FNDA:2,_RNvMs3_NtCsyULe2umut5_4pmix7utilityNtB5_14PmixByteObject12as_c_mut_ptr
FNDA:5,_RNvMs3_NtCsyULe2umut5_4pmix7utilityNtB5_14PmixByteObject3len
FNDA:2,_RNvMs3_NtCsyULe2umut5_4pmix7utilityNtB5_14PmixByteObject5empty
FNDA:5,_RNvMs3_NtCsyULe2umut5_4pmix7utilityNtB5_14PmixByteObject8as_slice
FNDA:1,_RNvMs3_NtCsyULe2umut5_4pmix7utilityNtB5_14PmixByteObject8from_vec
FNDA:2,_RNvMs3_NtCsyULe2umut5_4pmix7utilityNtB5_14PmixByteObject8is_empty
FNDA:3,_RNvNtCsyULe2umut5_4pmix7utility11initialized
FNDA:12,_RNvNtCsyULe2umut5_4pmix7utility12error_string
FNDA:10,_RNvNtCsyULe2umut5_4pmix7utility12generate_ppn
FNDA:13,_RNvNtCsyULe2umut5_4pmix7utility12scope_string
FNDA:15,_RNvNtCsyULe2umut5_4pmix7utility16job_state_string
FNDA:19,_RNvNtCsyULe2umut5_4pmix7utility17data_range_string
FNDA:10,_RNvNtCsyULe2umut5_4pmix7utility17link_state_string
FNDA:28,_RNvNtCsyULe2umut5_4pmix7utility17proc_state_string
FNDA:17,_RNvNtCsyULe2umut5_4pmix7utility18device_type_string
FNDA:14,_RNvNtCsyULe2umut5_4pmix7utility18iof_channel_string
FNDA:12,_RNvNtCsyULe2umut5_4pmix7utility22info_directives_string
FNDA:1,_RNvXs4_NtCsyULe2umut5_4pmix7utilityNtB5_14PmixByteObjectINtNtCs27Vx93FoQ6z_4core7convert5AsRefShE6as_ref
FNDA:1,_RINvNvNtNtCsyULe2umut5_4pmix7utility5testss_27test_iof_push_handler_trait14assert_handlerFNtB8_10PmixStatusEuEB8_
FNDA:1,_RINvNvNtNtCsyULe2umut5_4pmix7utility5testss_27test_iof_push_handler_trait14assert_handlerINtNtCsgW8esjfipvk_5alloc5boxed3BoxDINtNtNtCs27Vx93FoQ6z_4core3ops8function2FnTNtB8_10PmixStatusEEp6OutputuNtNtB26_6marker4SendEL_EEB8_
FNDA:0,_RINvNtCsyULe2umut5_4pmix7utility14iof_deregisterpEB4_
FNDA:0,_RINvNtCsyULe2umut5_4pmix7utility17iof_pull_blockingpEB4_
FNDA:0,_RINvNtCsyULe2umut5_4pmix7utility8iof_pullppEB4_
FNDA:0,_RINvNtCsyULe2umut5_4pmix7utility8iof_pushpEB4_
FNDA:0,_RNCINvNtCsyULe2umut5_4pmix7utility17iof_pull_blockingpE0B6_
FNDA:0,_RNCNCNvNtCsyULe2umut5_4pmix7utility19register_attributess_00B7_
FNDA:0,_RNCNvNtCsyULe2umut5_4pmix7utility14generate_regex0B5_
FNDA:0,_RNCNvNtCsyULe2umut5_4pmix7utility18get_attribute_name0B5_
FNDA:0,_RNCNvNtCsyULe2umut5_4pmix7utility19register_attributes0B5_
FNDA:0,_RNCNvNtCsyULe2umut5_4pmix7utility19register_attributess0_0B5_
FNDA:0,_RNCNvNtCsyULe2umut5_4pmix7utility19register_attributess_0B5_
FNDA:0,_RNCNvNtCsyULe2umut5_4pmix7utility20get_attribute_string0B5_
FNDA:0,_RNvNtCsyULe2umut5_4pmix7utility14generate_regex
FNDA:0,_RNvNtCsyULe2umut5_4pmix7utility16data_type_string
FNDA:0,_RNvNtCsyULe2umut5_4pmix7utility17iof_push_blocking
FNDA:0,_RNvNtCsyULe2umut5_4pmix7utility18get_attribute_name
FNDA:0,_RNvNtCsyULe2umut5_4pmix7utility18io_callback_bridge
FNDA:0,_RNvNtCsyULe2umut5_4pmix7utility18persistence_string
FNDA:0,_RNvNtCsyULe2umut5_4pmix7utility19reg_callback_bridge
FNDA:0,_RNvNtCsyULe2umut5_4pmix7utility19register_attributes
FNDA:0,_RNvNtCsyULe2umut5_4pmix7utility20get_attribute_string
FNDA:0,_RNvNtCsyULe2umut5_4pmix7utility20push_callback_bridge
FNDA:0,_RNvNtCsyULe2umut5_4pmix7utility21dereg_callback_bridge
FNDA:0,_RNvNtCsyULe2umut5_4pmix7utility22alloc_directive_string
FNDA:0,_RNvNtCsyULe2umut5_4pmix7utility23iof_deregister_blocking
FNF:142
FNH:115
DA:42,3
DA:46,3
DA:47,3
DA:76,12
DA:77,12
DA:83,12
DA:84,12
DA:86,0
DA:87,12
DA:90,12
DA:91,12
DA:92,12
DA:121,28
DA:122,28
DA:128,28
DA:129,28
DA:131,0
DA:132,28
DA:135,28
DA:136,28
DA:137,28
DA:166,13
DA:167,13
DA:173,13
DA:174,13
DA:176,0
DA:177,13
DA:180,13
DA:181,13
DA:182,13
DA:211,0
DA:212,0
DA:218,0
DA:219,0
DA:221,0
DA:222,0
DA:225,0
DA:226,0
DA:227,0
DA:256,19
DA:257,19
DA:263,19
DA:264,19
DA:266,0
DA:267,19
DA:270,19
DA:271,19
DA:272,19
DA:309,12
DA:310,12
DA:316,12
DA:317,12
DA:319,0
DA:320,12
DA:323,12
DA:324,12
DA:325,12
DA:354,0
DA:355,0
DA:361,0
DA:362,0
DA:364,0
DA:365,0
DA:368,0
DA:369,0
DA:370,0
DA:403,0
DA:404,0
DA:410,0
DA:411,0
DA:413,0
DA:414,0
DA:417,0
DA:418,0
DA:419,0
DA:457,14
DA:458,14
DA:464,14
DA:465,14
DA:467,0
DA:468,14
DA:471,14
DA:472,14
DA:473,14
DA:502,15
DA:503,15
DA:509,15
DA:510,15
DA:512,0
DA:513,15
DA:516,15
DA:517,15
DA:518,15
DA:553,0
DA:556,0
DA:564,0
DA:565,0
DA:568,0
DA:569,0
DA:572,0
DA:573,0
DA:574,0
DA:606,0
DA:607,0
DA:615,0
DA:616,0
DA:619,0
DA:620,0
DA:623,0
DA:624,0
DA:625,0
DA:661,10
DA:662,10
DA:668,10
DA:669,10
DA:671,0
DA:672,10
DA:675,10
DA:676,10
DA:677,10
DA:698,17
DA:699,17
DA:705,17
DA:706,17
DA:708,0
DA:709,17
DA:712,17
DA:713,17
DA:714,17
DA:752,0
DA:754,0
DA:756,0
DA:764,0
DA:766,0
DA:767,0
DA:768,0
DA:769,0
DA:775,0
DA:776,0
DA:777,0
DA:778,0
DA:779,0
DA:784,0
DA:785,0
DA:824,10
DA:826,10
DA:828,10
DA:836,10
DA:838,10
DA:839,10
DA:840,10
DA:841,0
DA:847,0
DA:848,0
DA:849,0
DA:850,0
DA:851,0
DA:856,0
DA:857,10
DA:900,0
DA:902,0
DA:908,0
DA:909,0
DA:910,0
DA:911,0
DA:918,0
DA:919,0
DA:920,0
DA:921,0
DA:922,0
DA:934,0
DA:935,0
DA:936,0
DA:937,0
DA:941,0
DA:942,0
DA:943,0
DA:945,0
DA:947,0
DA:963,0
DA:999,0
DA:1000,0
DA:1001,0
DA:1002,0
DA:1003,0
DA:1004,0
DA:1005,0
DA:1006,0
DA:1008,0
DA:1009,0
DA:1010,0
DA:1011,0
DA:1013,0
DA:1015,0
DA:1016,0
DA:1017,0
DA:1021,0
DA:1025,0
DA:1029,0
DA:1030,0
DA:1031,0
DA:1032,0
DA:1034,0
DA:1037,0
DA:1040,0
DA:1041,0
DA:1042,0
DA:1048,0
DA:1049,0
DA:1050,0
DA:1051,0
DA:1052,0
DA:1053,0
DA:1054,0
DA:1055,0
DA:1059,0
DA:1063,0
DA:1064,0
DA:1065,0
DA:1066,0
DA:1068,0
DA:1069,0
DA:1070,0
DA:1115,0
DA:1116,0
DA:1117,0
DA:1118,0
DA:1119,0
DA:1120,0
DA:1121,0
DA:1122,0
DA:1123,0
DA:1124,0
DA:1127,0
DA:1128,0
DA:1129,0
DA:1130,0
DA:1131,0
DA:1140,0
DA:1141,0
DA:1142,0
DA:1143,0
DA:1144,0
DA:1145,0
DA:1146,0
DA:1147,0
DA:1148,0
DA:1149,0
DA:1153,0
DA:1154,0
DA:1158,0
DA:1159,0
DA:1160,0
DA:1161,0
DA:1164,0
DA:1166,0
DA:1183,0
DA:1184,0
DA:1185,0
DA:1186,0
DA:1187,0
DA:1188,0
DA:1189,0
DA:1190,0
DA:1193,0
DA:1194,0
DA:1195,0
DA:1197,0
DA:1199,0
DA:1202,0
DA:1203,0
DA:1204,0
DA:1205,0
DA:1206,0
DA:1207,0
DA:1208,0
DA:1209,0
DA:1210,0
DA:1211,0
DA:1215,0
DA:1216,0
DA:1219,0
DA:1220,0
DA:1221,0
DA:1222,0
DA:1225,0
DA:1228,0
DA:1229,0
DA:1230,0
DA:1231,0
DA:1232,0
DA:1234,0
DA:1259,0
DA:1260,0
DA:1261,0
DA:1262,0
DA:1267,0
DA:1269,0
DA:1273,0
DA:1274,0
DA:1304,0
DA:1305,0
DA:1306,0
DA:1307,0
DA:1308,0
DA:1309,0
DA:1310,0
DA:1315,0
DA:1316,0
DA:1317,0
DA:1318,0
DA:1323,0
DA:1324,0
DA:1325,0
DA:1326,0
DA:1327,0
DA:1331,0
DA:1332,0
DA:1339,0
DA:1340,0
DA:1341,0
DA:1342,0
DA:1343,0
DA:1344,0
DA:1345,0
DA:1349,0
DA:1350,0
DA:1354,0
DA:1355,0
DA:1356,0
DA:1357,0
DA:1361,0
DA:1363,0
DA:1379,0
DA:1380,0
DA:1381,0
DA:1382,0
DA:1385,0
DA:1386,0
DA:1387,0
DA:1388,0
DA:1391,0
DA:1392,0
DA:1393,0
DA:1394,0
DA:1395,0
DA:1401,0
DA:1402,0
DA:1403,0
DA:1404,0
DA:1405,0
DA:1406,0
DA:1407,0
DA:1411,0
DA:1412,0
DA:1413,0
DA:1415,0
DA:1417,0
DA:1445,4
DA:1446,4
DA:1447,4
DA:1448,4
DA:1449,4
DA:1452,1
DA:1453,1
DA:1454,1
DA:1457,2
DA:1458,2
DA:1459,2
DA:1462,2
DA:1463,2
DA:1464,2
DA:1467,5
DA:1468,5
DA:1469,5
DA:1472,5
DA:1473,5
DA:1474,5
DA:1484,2
DA:1487,2
DA:1488,1
DA:1492,1
DA:1493,1
DA:1497,2
DA:1498,2
DA:1499,2
DA:1500,2
DA:1501,2
DA:1502,2
DA:1508,3
DA:1509,3
DA:1510,2
DA:1511,2
DA:1512,2
DA:1513,2
DA:1514,2
DA:1515,2
DA:1516,3
DA:1520,1
DA:1521,1
DA:1522,1
DA:1550,0
DA:1551,0
DA:1552,0
DA:1553,0
DA:1557,0
DA:1559,0
DA:1561,0
DA:1562,0
DA:1563,0
DA:1587,0
DA:1588,0
DA:1589,0
DA:1590,0
DA:1591,0
DA:1592,0
DA:1593,0
DA:1594,0
DA:1597,0
DA:1600,0
DA:1601,0
DA:1610,0
DA:1611,0
DA:1612,0
DA:1613,0
DA:1614,0
DA:1615,0
DA:1616,0
DA:1617,0
DA:1618,0
DA:1625,0
DA:1627,0
DA:1632,0
DA:1635,0
DA:1636,0
DA:1637,0
DA:1638,0
DA:1641,0
DA:1643,0
DA:1659,0
DA:1660,0
DA:1661,0
DA:1662,0
DA:1663,0
DA:1665,0
DA:1675,0
DA:1676,0
DA:1677,0
DA:1678,0
DA:1679,0
DA:1680,0
DA:1681,0
DA:1682,0
DA:1683,0
DA:1689,0
DA:1691,0
DA:1692,0
DA:1693,0
DA:1695,0
DA:1697,0
DA:1713,1
DA:1714,1
DA:1715,1
DA:1716,1
DA:1717,1
DA:1718,1
DA:1719,1
DA:1723,1
DA:1724,1
DA:1725,1
DA:1726,1
DA:1727,1
DA:1728,1
DA:1732,1
DA:1733,1
DA:1734,1
DA:1735,1
DA:1736,1
DA:1737,1
DA:1741,1
DA:1742,1
DA:1743,1
DA:1744,1
DA:1745,1
DA:1749,1
DA:1750,1
DA:1751,1
DA:1752,1
DA:1753,1
DA:1754,1
DA:1758,1
DA:1759,1
DA:1760,1
DA:1761,1
DA:1763,1
DA:1764,1
DA:1768,1
DA:1769,1
DA:1770,1
DA:1771,1
DA:1773,1
DA:1774,1
DA:1778,1
DA:1780,1
DA:1781,1
DA:1790,1
DA:1791,2
DA:1792,1
DA:1793,1
DA:1794,1
DA:1811,1
DA:1812,1
DA:1815,1
DA:1816,0
DA:1817,1
DA:1818,0
DA:1819,0
DA:1820,0
DA:1821,0
DA:1822,0
DA:1824,1
DA:1825,1
DA:1829,1
DA:1834,1
DA:1835,1
DA:1836,1
DA:1837,1
DA:1838,1
DA:1850,1
DA:1851,1
DA:1852,1
DA:1853,1
DA:1854,1
DA:1858,1
DA:1859,1
DA:1860,1
DA:1863,1
DA:1867,1
DA:1868,1
DA:1869,1
DA:1870,1
DA:1871,1
DA:1875,1
DA:1880,1
DA:1881,1
DA:1888,5
DA:1889,5
DA:1890,5
DA:1891,5
DA:1892,5
DA:1897,5
DA:1898,5
DA:1899,5
DA:1904,1
DA:1912,1
DA:1913,1
DA:1914,1
DA:1915,1
DA:1916,1
DA:1920,1
DA:1925,1
DA:1926,1
DA:1927,1
DA:1928,1
DA:1929,1
DA:1933,1
DA:1937,1
DA:1938,1
DA:1939,1
DA:1940,1
DA:1944,1
DA:1956,1
DA:1957,1
DA:1958,1
DA:1959,1
DA:1960,1
DA:1964,1
DA:1965,1
DA:1966,1
DA:1969,1
DA:1973,1
DA:1976,1
DA:1977,1
DA:1978,1
DA:1979,1
DA:1980,1
DA:1981,1
DA:1982,1
DA:1983,1
DA:1984,1
DA:1985,1
DA:1986,8
DA:1987,8
DA:1988,8
DA:1989,8
DA:1994,8
DA:1995,8
DA:1996,8
DA:2001,1
DA:2006,1
DA:2007,1
DA:2008,1
DA:2009,1
DA:2010,1
DA:2014,1
DA:2018,1
DA:2019,1
DA:2020,1
DA:2021,1
DA:2025,1
DA:2029,1
DA:2032,1
DA:2033,1
DA:2034,1
DA:2035,1
DA:2036,1
DA:2037,1
DA:2038,1
DA:2039,1
DA:2040,1
DA:2041,1
DA:2042,1
DA:2043,1
DA:2044,1
DA:2045,1
DA:2046,1
DA:2047,1
DA:2048,14
DA:2049,14
DA:2050,14
DA:2051,14
DA:2057,1
DA:2062,1
DA:2063,1
DA:2064,1
DA:2065,1
DA:2066,1
DA:2070,1
DA:2072,1
DA:2073,1
DA:2076,1
DA:2080,1
DA:2083,1
DA:2084,1
DA:2085,1
DA:2086,1
DA:2087,1
DA:2088,1
DA:2089,1
DA:2090,1
DA:2091,1
DA:2092,1
DA:2093,1
DA:2094,1
DA:2095,1
DA:2096,1
DA:2097,1
DA:2098,1
DA:2099,1
DA:2100,1
DA:2101,1
DA:2102,1
DA:2103,1
DA:2104,1
DA:2105,1
DA:2106,1
DA:2107,1
DA:2108,23
DA:2109,23
DA:2110,23
DA:2111,23
DA:2117,1
DA:2121,1
DA:2124,1
DA:2125,1
DA:2126,1
DA:2127,1
DA:2129,1
DA:2130,1
DA:2131,1
DA:2132,1
DA:2133,1
DA:2134,1
DA:2146,1
DA:2149,1
DA:2150,5
DA:2151,5
DA:2152,5
DA:2153,5
DA:2158,5
DA:2159,5
DA:2160,5
DA:2165,1
DA:2172,1
DA:2175,1
DA:2176,1
DA:2177,1
DA:2180,1
DA:2181,1
DA:2186,1
DA:2187,1
DA:2192,1
DA:2193,1
DA:2197,1
DA:2202,1
DA:2204,1
DA:2205,1
DA:2206,1
DA:2210,1
DA:2214,1
DA:2216,1
DA:2217,1
DA:2218,1
DA:2222,1
DA:2227,1
DA:2229,1
DA:2230,1
DA:2231,1
DA:2232,1
DA:2236,1
DA:2237,1
DA:2238,1
DA:2241,1
DA:2249,1
DA:2252,1
DA:2253,5
DA:2254,5
DA:2255,5
DA:2256,5
DA:2262,1
DA:2266,1
DA:2269,1
DA:2270,1
DA:2271,1
DA:2272,1
DA:2273,1
DA:2274,1
DA:2275,1
DA:2279,1
DA:2282,1
DA:2283,1
DA:2284,1
DA:2285,1
DA:2286,1
DA:2287,1
DA:2288,1
DA:2292,1
DA:2295,1
DA:2296,1
DA:2297,1
DA:2298,1
DA:2299,1
DA:2300,1
DA:2301,1
DA:2313,1
DA:2316,1
DA:2317,1
DA:2318,1
DA:2319,9
DA:2320,9
DA:2321,9
DA:2322,9
DA:2327,9
DA:2328,9
DA:2329,9
DA:2334,1
DA:2343,1
DA:2346,1
DA:2347,1
DA:2348,1
DA:2349,1
DA:2352,1
DA:2353,1
DA:2358,1
DA:2359,1
DA:2364,1
DA:2365,1
DA:2366,0
DA:2371,1
DA:2372,1
DA:2373,0
DA:2377,1
DA:2382,1
DA:2384,1
DA:2385,1
DA:2386,1
DA:2390,1
DA:2394,1
DA:2396,1
DA:2397,1
DA:2398,1
DA:2402,1
DA:2407,1
DA:2409,1
DA:2410,1
DA:2411,1
DA:2412,1
DA:2416,1
DA:2417,1
DA:2418,1
DA:2421,1
DA:2425,1
DA:2427,1
DA:2428,1
DA:2429,1
DA:2433,1
DA:2434,1
DA:2435,1
DA:2438,1
DA:2446,1
DA:2449,1
DA:2450,1
DA:2451,1
DA:2452,9
DA:2453,9
DA:2454,9
DA:2455,9
DA:2461,1
DA:2465,1
DA:2468,1
DA:2469,1
DA:2470,1
DA:2471,1
DA:2472,1
DA:2473,1
DA:2474,1
DA:2475,1
DA:2476,1
DA:2477,1
DA:2478,1
DA:2482,1
DA:2485,1
DA:2486,1
DA:2487,1
DA:2488,1
DA:2489,1
DA:2490,1
DA:2491,1
DA:2492,1
DA:2493,1
DA:2494,1
DA:2495,1
DA:2499,1
DA:2502,1
DA:2503,1
DA:2504,1
DA:2505,1
DA:2506,1
DA:2507,1
DA:2508,1
DA:2509,1
DA:2510,1
DA:2511,1
DA:2512,1
DA:2524,1
DA:2525,1
DA:2526,1
DA:2527,1
DA:2528,1
DA:2532,1
DA:2533,1
DA:2534,1
DA:2537,1
DA:2541,1
DA:2544,1
DA:2545,1
DA:2546,1
DA:2547,1
DA:2548,1
DA:2549,1
DA:2550,4
DA:2551,4
DA:2552,4
DA:2553,4
DA:2558,4
DA:2559,4
DA:2560,4
DA:2565,1
DA:2569,1
DA:2571,1
DA:2572,1
DA:2573,1
DA:2574,1
DA:2578,1
DA:2579,1
DA:2580,1
DA:2583,1
DA:2587,1
DA:2589,1
DA:2590,1
DA:2591,1
DA:2592,1
DA:2593,1
DA:2597,1
DA:2598,1
DA:2599,1
DA:2602,1
DA:2607,1
DA:2609,1
DA:2610,1
DA:2611,1
DA:2612,1
DA:2616,1
DA:2620,1
DA:2622,1
DA:2623,1
DA:2624,1
DA:2628,1
DA:2632,1
DA:2635,1
DA:2636,1
DA:2637,1
DA:2638,1
DA:2642,1
DA:2643,1
DA:2644,1
DA:2647,1
DA:2651,1
DA:2653,1
DA:2654,1
DA:2655,1
DA:2656,1
DA:2657,1
DA:2662,1
DA:2666,1
DA:2668,1
DA:2669,1
DA:2670,1
DA:2671,1
DA:2672,1
DA:2676,1
DA:2678,1
DA:2679,1
DA:2680,1
DA:2681,1
DA:2693,1
DA:2696,1
DA:2697,1
DA:2698,1
DA:2699,1
DA:2700,1
DA:2701,1
DA:2702,1
DA:2703,1
DA:2704,6
DA:2705,6
DA:2706,6
DA:2707,6
DA:2712,6
DA:2713,6
DA:2714,6
DA:2719,1
DA:2723,1
DA:2726,1
DA:2727,1
DA:2728,1
DA:2730,1
DA:2731,1
DA:2735,1
DA:2736,1
DA:2740,1
DA:2741,1
DA:2745,1
DA:2750,1
DA:2752,1
DA:2753,1
DA:2754,1
DA:2758,1
DA:2762,1
DA:2764,1
DA:2765,1
DA:2766,1
DA:2770,1
DA:2774,1
DA:2776,1
DA:2777,1
DA:2778,1
DA:2779,1
DA:2783,1
DA:2784,1
DA:2785,1
DA:2788,1
DA:2796,1
DA:2799,1
DA:2800,1
DA:2801,1
DA:2802,1
DA:2803,1
DA:2804,1
DA:2805,1
DA:2809,1
DA:2812,1
DA:2813,1
DA:2814,1
DA:2815,1
DA:2816,1
DA:2817,1
DA:2821,1
DA:2824,1
DA:2825,1
DA:2826,1
DA:2827,1
DA:2828,1
DA:2832,1
DA:2835,1
DA:2836,1
DA:2837,1
DA:2838,1
DA:2839,1
DA:2843,1
DA:2846,1
DA:2847,1
DA:2848,1
DA:2853,1
DA:2854,1
DA:2855,1
DA:2860,1
DA:2861,1
DA:2862,1
DA:2867,1
DA:2868,1
DA:2869,1
DA:2873,1
DA:2874,1
DA:2878,1
DA:2882,1
DA:2885,1
DA:2886,1
DA:2887,1
DA:2889,1
DA:2890,1
DA:2891,1
DA:2892,1
DA:2893,1
DA:2901,1
DA:2904,1
DA:2905,1
DA:2906,1
DA:2907,1
DA:2908,1
DA:2909,1
DA:2910,1
DA:2911,1
DA:2912,1
DA:2913,1
DA:2914,1
DA:2915,9
DA:2916,9
DA:2917,9
DA:2918,9
DA:2923,9
DA:2924,9
DA:2925,9
DA:2930,1
DA:2934,1
DA:2937,1
DA:2938,1
DA:2939,1
DA:2940,1
DA:2942,1
DA:2943,1
DA:2947,1
DA:2948,1
DA:2952,1
DA:2953,1
DA:2957,1
DA:2958,1
DA:2962,1
DA:2967,1
DA:2970,1
DA:2971,1
DA:2972,1
DA:2977,1
DA:2981,1
DA:2984,1
DA:2985,1
DA:2986,1
DA:2987,1
DA:2988,1
DA:2989,1
DA:2990,1
DA:2991,1
DA:2992,1
DA:2993,1
DA:2994,1
DA:2995,9
DA:2996,9
DA:2997,9
DA:2998,9
DA:3004,1
DA:3008,1
DA:3011,1
DA:3012,1
DA:3013,1
DA:3017,1
DA:3021,1
DA:3024,1
DA:3025,1
DA:3026,1
DA:3027,1
DA:3028,1
DA:3029,1
DA:3030,1
DA:3031,1
DA:3032,1
DA:3033,1
DA:3034,1
DA:3035,1
DA:3036,10
DA:3037,10
DA:3038,10
DA:3039,10
DA:3044,1
DA:3048,1
DA:3051,1
DA:3052,1
DA:3053,1
DA:3054,1
DA:3055,1
DA:3056,1
DA:3057,1
DA:3058,1
DA:3059,1
DA:3060,1
DA:3068,1
DA:3071,1
DA:3072,3
DA:3073,3
DA:3074,3
DA:3075,3
DA:3080,3
DA:3081,3
DA:3082,3
DA:3087,1
DA:3091,1
DA:3094,1
DA:3095,1
DA:3097,1
DA:3098,1
DA:3100,1
DA:3101,1
DA:3102,1
DA:3106,1
DA:3109,1
DA:3110,1
DA:3111,1
DA:3113,1
DA:3114,1
DA:3115,1
DA:3116,1
DA:3120,1
DA:3123,1
DA:3124,1
DA:3125,1
DA:3126,1
DA:3130,1
DA:3133,1
DA:3134,1
DA:3135,1
DA:3136,1
DA:3138,1
DA:3139,1
DA:3140,1
DA:3143,1
DA:3144,1
DA:3145,1
DA:3149,1
DA:3152,1
DA:3153,1
DA:3154,1
DA:3155,1
DA:3163,1
DA:3166,1
DA:3167,7
DA:3168,7
DA:3169,7
DA:3170,7
DA:3175,7
DA:3176,7
DA:3177,7
DA:3182,1
DA:3186,1
DA:3189,1
DA:3190,1
DA:3191,1
DA:3192,1
DA:3193,1
DA:3194,1
DA:3195,1
DA:3196,1
DA:3201,1
DA:3204,1
DA:3205,1
DA:3206,1
DA:3207,1
DA:3211,1
DA:3214,1
DA:3215,1
DA:3216,1
DA:3217,1
DA:3220,1
DA:3224,1
DA:3227,1
DA:3228,1
DA:3229,1
DA:3230,1
DA:3231,1
DA:3232,1
DA:3233,1
DA:3234,1
DA:3235,1
DA:3239,1
DA:3240,1
DA:3241,1
DA:3242,1
DA:3243,1
DA:3244,1
DA:3245,1
DA:3248,1
DA:3249,1
DA:3250,1
DA:3254,1
DA:3257,1
DA:3258,1
DA:3259,1
DA:3260,1
DA:3261,1
DA:3262,1
DA:3263,1
DA:3264,1
DA:3268,1
DA:3271,1
DA:3272,1
DA:3273,1
DA:3274,1
DA:3275,1
DA:3276,1
DA:3277,1
DA:3278,1
DA:3289,1
DA:3290,1
DA:3291,1
DA:3292,1
DA:3296,1
DA:3301,1
DA:3302,1
DA:3303,1
DA:3304,1
DA:3306,1
DA:3307,1
DA:3308,1
DA:3309,1
DA:3310,1
DA:3311,1
DA:3312,1
DA:3313,1
DA:3314,1
DA:3318,1
DA:3319,1
DA:3320,1
DA:3321,1
DA:3325,1
DA:3329,1
DA:3330,1
DA:3331,1
DA:3332,1
DA:3336,1
DA:3340,1
DA:3341,1
DA:3342,1
DA:3343,1
DA:3347,1
DA:3351,1
DA:3352,1
DA:3353,1
DA:3354,1
DA:3358,1
DA:3362,1
DA:3363,1
DA:3364,1
DA:3365,1
DA:3369,1
DA:3373,1
DA:3379,1
DA:3380,1
DA:3384,1
DA:3385,1
DA:3386,1
DA:3387,1
DA:3389,1
DA:3390,1
DA:3393,0
DA:3396,0
DA:3398,0
DA:3401,1
BRF:0
BRH:0
LF:1304
LH:950
end_of_record